

Microchip MPLAB XC8 Assembler V2.31 build 20201012212115 
                                                                                               Tue Aug 03 01:14:04 2021

Microchip MPLAB XC8 C Compiler v2.31 (Free license) build 20201012212115 Og1 
     1                           	processor	16F887
     2                           	pagewidth 120
     3                           	opt	flic
     4                           	psect	idataBANK0,global,class=CODE,delta=2,noexec
     5                           	psect	cinit,global,class=CODE,merge=1,delta=2
     6                           	psect	bssCOMMON,global,class=COMMON,space=1,delta=1,noexec
     7                           	psect	bssBANK0,global,class=BANK0,space=1,delta=1,noexec
     8                           	psect	dataBANK0,global,class=BANK0,space=1,delta=1,noexec
     9                           	psect	cstackCOMMON,global,class=COMMON,space=1,delta=1,noexec
    10                           	psect	cstackBANK0,global,class=BANK0,space=1,delta=1,noexec
    11                           	psect	maintext,global,class=CODE,split=1,delta=2
    12                           	psect	text1,local,class=CODE,merge=1,delta=2
    13                           	psect	text2,local,class=CODE,merge=1,delta=2
    14                           	psect	text3,local,class=CODE,merge=1,delta=2
    15                           	psect	text4,local,class=CODE,merge=1,delta=2
    16                           	psect	text5,local,class=CODE,merge=1,delta=2
    17                           	psect	text6,local,class=CODE,merge=1,delta=2,group=1
    18                           	psect	text7,local,class=CODE,merge=1,delta=2,group=1
    19                           	psect	text8,local,class=CODE,merge=1,delta=2,group=1
    20                           	psect	text9,local,class=CODE,merge=1,delta=2
    21                           	psect	intentry,global,class=CODE,delta=2
    22                           	psect	config,global,abs,ovrld,class=CONFIG,space=4,delta=2,noexec
    23                           	dabs	1,0x7E,2
    24  0000                     
    25                           ; Version 2.20
    26                           ; Generated 12/02/2020 GMT
    27                           ; 
    28                           ; Copyright © 2020, Microchip Technology Inc. and its subsidiaries ("Microchip")
    29                           ; All rights reserved.
    30                           ; 
    31                           ; This software is developed by Microchip Technology Inc. and its subsidiaries ("Microch
      +                          ip").
    32                           ; 
    33                           ; Redistribution and use in source and binary forms, with or without modification, are
    34                           ; permitted provided that the following conditions are met:
    35                           ; 
    36                           ;     1. Redistributions of source code must retain the above copyright notice, this lis
      +                          t of
    37                           ;        conditions and the following disclaimer.
    38                           ; 
    39                           ;     2. Redistributions in binary form must reproduce the above copyright notice, this 
      +                          list
    40                           ;        of conditions and the following disclaimer in the documentation and/or other
    41                           ;        materials provided with the distribution.
    42                           ; 
    43                           ;     3. Microchip's name may not be used to endorse or promote products derived from th
      +                          is
    44                           ;        software without specific prior written permission.
    45                           ; 
    46                           ; THIS SOFTWARE IS PROVIDED BY MICROCHIP "AS IS" AND ANY EXPRESS OR IMPLIED WARRANTIES,
    47                           ; INCLUDING, BUT NOT LIMITED TO, THE IMPLIED WARRANTIES OF MERCHANTABILITY AND FITNESS F
      +                          OR
    48                           ; PURPOSE ARE DISCLAIMED.  IN NO EVENT SHALL MICROCHIP BE LIABLE FOR ANY DIRECT, INDIREC
      +                          T,
    49                           ; INCIDENTAL, SPECIAL, EXEMPLARY, OR CONSEQUENTIAL DAMAGES (INCLUDING BUT NOT LIMITED TO
    50                           ; PROCUREMENT OF SUBSTITUTE GOODS OR SERVICES; LOSS OF USE, DATA OR PROFITS; OR BUSINESS
    51                           ; INTERRUPTION) HOWSOEVER CAUSED AND ON ANY THEORY OF LIABILITY, WHETHER IN CONTRACT, ST
      +                          RICT
    52                           ; LIABILITY, OR TORT (INCLUDING NEGLIGENCE OR OTHERWISE) ARISING IN ANY WAY OUT OF THE U
      +                          SE OF
    53                           ; THIS SOFTWARE, EVEN IF ADVISED OF THE POSSIBILITY OF SUCH DAMAGE.
    54                           ; 
    55                           ; 
    56                           ; Code-generator required, PIC16F887 Definitions
    57                           ; 
    58                           ; SFR Addresses
    59  0000                     	;# 
    60  0001                     	;# 
    61  0002                     	;# 
    62  0003                     	;# 
    63  0004                     	;# 
    64  0005                     	;# 
    65  0006                     	;# 
    66  0007                     	;# 
    67  0008                     	;# 
    68  0009                     	;# 
    69  000A                     	;# 
    70  000B                     	;# 
    71  000C                     	;# 
    72  000D                     	;# 
    73  000E                     	;# 
    74  000E                     	;# 
    75  000F                     	;# 
    76  0010                     	;# 
    77  0011                     	;# 
    78  0012                     	;# 
    79  0013                     	;# 
    80  0014                     	;# 
    81  0015                     	;# 
    82  0015                     	;# 
    83  0016                     	;# 
    84  0017                     	;# 
    85  0018                     	;# 
    86  0019                     	;# 
    87  001A                     	;# 
    88  001B                     	;# 
    89  001B                     	;# 
    90  001C                     	;# 
    91  001D                     	;# 
    92  001E                     	;# 
    93  001F                     	;# 
    94  0081                     	;# 
    95  0085                     	;# 
    96  0086                     	;# 
    97  0087                     	;# 
    98  0088                     	;# 
    99  0089                     	;# 
   100  008C                     	;# 
   101  008D                     	;# 
   102  008E                     	;# 
   103  008F                     	;# 
   104  0090                     	;# 
   105  0091                     	;# 
   106  0092                     	;# 
   107  0093                     	;# 
   108  0093                     	;# 
   109  0093                     	;# 
   110  0094                     	;# 
   111  0095                     	;# 
   112  0096                     	;# 
   113  0097                     	;# 
   114  0098                     	;# 
   115  0099                     	;# 
   116  009A                     	;# 
   117  009B                     	;# 
   118  009C                     	;# 
   119  009D                     	;# 
   120  009E                     	;# 
   121  009F                     	;# 
   122  0105                     	;# 
   123  0107                     	;# 
   124  0108                     	;# 
   125  0109                     	;# 
   126  010C                     	;# 
   127  010C                     	;# 
   128  010D                     	;# 
   129  010E                     	;# 
   130  010F                     	;# 
   131  0185                     	;# 
   132  0187                     	;# 
   133  0188                     	;# 
   134  0189                     	;# 
   135  018C                     	;# 
   136  018D                     	;# 
   137  0000                     	;# 
   138  0001                     	;# 
   139  0002                     	;# 
   140  0003                     	;# 
   141  0004                     	;# 
   142  0005                     	;# 
   143  0006                     	;# 
   144  0007                     	;# 
   145  0008                     	;# 
   146  0009                     	;# 
   147  000A                     	;# 
   148  000B                     	;# 
   149  000C                     	;# 
   150  000D                     	;# 
   151  000E                     	;# 
   152  000E                     	;# 
   153  000F                     	;# 
   154  0010                     	;# 
   155  0011                     	;# 
   156  0012                     	;# 
   157  0013                     	;# 
   158  0014                     	;# 
   159  0015                     	;# 
   160  0015                     	;# 
   161  0016                     	;# 
   162  0017                     	;# 
   163  0018                     	;# 
   164  0019                     	;# 
   165  001A                     	;# 
   166  001B                     	;# 
   167  001B                     	;# 
   168  001C                     	;# 
   169  001D                     	;# 
   170  001E                     	;# 
   171  001F                     	;# 
   172  0081                     	;# 
   173  0085                     	;# 
   174  0086                     	;# 
   175  0087                     	;# 
   176  0088                     	;# 
   177  0089                     	;# 
   178  008C                     	;# 
   179  008D                     	;# 
   180  008E                     	;# 
   181  008F                     	;# 
   182  0090                     	;# 
   183  0091                     	;# 
   184  0092                     	;# 
   185  0093                     	;# 
   186  0093                     	;# 
   187  0093                     	;# 
   188  0094                     	;# 
   189  0095                     	;# 
   190  0096                     	;# 
   191  0097                     	;# 
   192  0098                     	;# 
   193  0099                     	;# 
   194  009A                     	;# 
   195  009B                     	;# 
   196  009C                     	;# 
   197  009D                     	;# 
   198  009E                     	;# 
   199  009F                     	;# 
   200  0105                     	;# 
   201  0107                     	;# 
   202  0108                     	;# 
   203  0109                     	;# 
   204  010C                     	;# 
   205  010C                     	;# 
   206  010D                     	;# 
   207  010E                     	;# 
   208  010F                     	;# 
   209  0185                     	;# 
   210  0187                     	;# 
   211  0188                     	;# 
   212  0189                     	;# 
   213  018C                     	;# 
   214  018D                     	;# 
   215  0000                     	;# 
   216  0001                     	;# 
   217  0002                     	;# 
   218  0003                     	;# 
   219  0004                     	;# 
   220  0005                     	;# 
   221  0006                     	;# 
   222  0007                     	;# 
   223  0008                     	;# 
   224  0009                     	;# 
   225  000A                     	;# 
   226  000B                     	;# 
   227  000C                     	;# 
   228  000D                     	;# 
   229  000E                     	;# 
   230  000E                     	;# 
   231  000F                     	;# 
   232  0010                     	;# 
   233  0011                     	;# 
   234  0012                     	;# 
   235  0013                     	;# 
   236  0014                     	;# 
   237  0015                     	;# 
   238  0015                     	;# 
   239  0016                     	;# 
   240  0017                     	;# 
   241  0018                     	;# 
   242  0019                     	;# 
   243  001A                     	;# 
   244  001B                     	;# 
   245  001B                     	;# 
   246  001C                     	;# 
   247  001D                     	;# 
   248  001E                     	;# 
   249  001F                     	;# 
   250  0081                     	;# 
   251  0085                     	;# 
   252  0086                     	;# 
   253  0087                     	;# 
   254  0088                     	;# 
   255  0089                     	;# 
   256  008C                     	;# 
   257  008D                     	;# 
   258  008E                     	;# 
   259  008F                     	;# 
   260  0090                     	;# 
   261  0091                     	;# 
   262  0092                     	;# 
   263  0093                     	;# 
   264  0093                     	;# 
   265  0093                     	;# 
   266  0094                     	;# 
   267  0095                     	;# 
   268  0096                     	;# 
   269  0097                     	;# 
   270  0098                     	;# 
   271  0099                     	;# 
   272  009A                     	;# 
   273  009B                     	;# 
   274  009C                     	;# 
   275  009D                     	;# 
   276  009E                     	;# 
   277  009F                     	;# 
   278  0105                     	;# 
   279  0107                     	;# 
   280  0108                     	;# 
   281  0109                     	;# 
   282  010C                     	;# 
   283  010C                     	;# 
   284  010D                     	;# 
   285  010E                     	;# 
   286  010F                     	;# 
   287  0185                     	;# 
   288  0187                     	;# 
   289  0188                     	;# 
   290  0189                     	;# 
   291  018C                     	;# 
   292  018D                     	;# 
   293                           
   294                           	psect	idataBANK0
   295  03C4                     __pidataBANK0:
   296                           
   297                           ;initializer for _POT
   298  03C4  3401               	retlw	1
   299  0013                     _SSPBUF	set	19
   300  0014                     _SSPCON	set	20
   301  0001                     _TMR0	set	1
   302  0018                     _RCSTAbits	set	24
   303  0009                     _PORTE	set	9
   304  0008                     _PORTD	set	8
   305  0007                     _PORTC	set	7
   306  0005                     _PORTA	set	5
   307  0019                     _TXREG	set	25
   308  001A                     _RCREG	set	26
   309  000C                     _PIR1bits	set	12
   310  000B                     _INTCONbits	set	11
   311  0007                     _PORTCbits	set	7
   312  0064                     _TXIF	set	100
   313  002F                     _RA7	set	47
   314  0094                     _SSPSTATbits	set	148
   315  0094                     _SSPSTAT	set	148
   316  0081                     _OPTION_REGbits	set	129
   317  009A                     _SPBRGH	set	154
   318  0099                     _SPBRG	set	153
   319  0098                     _TXSTAbits	set	152
   320  0089                     _TRISE	set	137
   321  0088                     _TRISD	set	136
   322  0087                     _TRISC	set	135
   323  0085                     _TRISA	set	133
   324  008F                     _OSCCONbits	set	143
   325  043B                     _TRISC3	set	1083
   326  043D                     _TRISC5	set	1085
   327  043A                     _TRISC2	set	1082
   328  0464                     _TXIE	set	1124
   329  0187                     _BAUDCTLbits	set	391
   330  0188                     _ANSEL	set	392
   331  0189                     _ANSELH	set	393
   332                           
   333                           	psect	cinit
   334  000F                     start_initialization:	
   335                           ; #config settings
   336                           
   337  000F                     __initialization:
   338                           
   339                           ; Initialize objects allocated to BANK0
   340  000F  120A  118A  23C4  120A  118A  	fcall	__pidataBANK0	;fetch initializer
   341  0014  00BD               	movwf	__pdataBANK0& (0+127)
   342                           
   343                           ; Clear objects allocated to BANK0
   344  0015  01B4               	clrf	__pbssBANK0& (0+127)
   345  0016  01B5               	clrf	(__pbssBANK0+1)& (0+127)
   346  0017  01B6               	clrf	(__pbssBANK0+2)& (0+127)
   347  0018  01B7               	clrf	(__pbssBANK0+3)& (0+127)
   348  0019  01B8               	clrf	(__pbssBANK0+4)& (0+127)
   349  001A  01B9               	clrf	(__pbssBANK0+5)& (0+127)
   350  001B  01BA               	clrf	(__pbssBANK0+6)& (0+127)
   351  001C  01BB               	clrf	(__pbssBANK0+7)& (0+127)
   352  001D  01BC               	clrf	(__pbssBANK0+8)& (0+127)
   353                           
   354                           ; Clear objects allocated to COMMON
   355  001E  01F8               	clrf	__pbssCOMMON& (0+127)
   356  001F  01F9               	clrf	(__pbssCOMMON+1)& (0+127)
   357  0020  01FA               	clrf	(__pbssCOMMON+2)& (0+127)
   358  0021                     end_of_initialization:	
   359                           ;End of C runtime variable initialization code
   360                           
   361  0021                     __end_of__initialization:
   362  0021  0183               	clrf	3
   363  0022  120A  118A  2825   	ljmp	_main	;jump to C main() function
   364                           
   365                           	psect	bssCOMMON
   366  0078                     __pbssCOMMON:
   367  0078                     _flag:
   368  0078                     	ds	1
   369  0079                     _contador:
   370  0079                     	ds	1
   371  007A                     _var_temp:
   372  007A                     	ds	1
   373                           
   374                           	psect	bssBANK0
   375  0034                     __pbssBANK0:
   376  0034                     _display_decimal_2_s2:
   377  0034                     	ds	1
   378  0035                     _display_decimal_s2:
   379  0035                     	ds	1
   380  0036                     _display_unidad_s2:
   381  0036                     	ds	1
   382  0037                     _display_decimal_2:
   383  0037                     	ds	1
   384  0038                     _display_decimal:
   385  0038                     	ds	1
   386  0039                     _display_unidad:
   387  0039                     	ds	1
   388  003A                     _cont:
   389  003A                     	ds	1
   390  003B                     _POT2:
   391  003B                     	ds	1
   392  003C                     _POT1:
   393  003C                     	ds	1
   394                           
   395                           	psect	dataBANK0
   396  003D                     __pdataBANK0:
   397  003D                     _POT:
   398  003D                     	ds	1
   399                           
   400                           	psect	cstackCOMMON
   401  0070                     __pcstackCOMMON:
   402  0070                     ?_setup:
   403  0070                     ?_spiWrite:	
   404                           ; 1 bytes @ 0x0
   405                           
   406  0070                     ?_spiRead:	
   407                           ; 1 bytes @ 0x0
   408                           
   409  0070                     ?_main:	
   410                           ; 1 bytes @ 0x0
   411                           
   412  0070                     ?_isr:	
   413                           ; 1 bytes @ 0x0
   414                           
   415  0070                     ??_isr:	
   416                           ; 1 bytes @ 0x0
   417                           
   418  0070                     ?_spiReceiveWait:	
   419                           ; 1 bytes @ 0x0
   420                           
   421                           
   422                           ; 1 bytes @ 0x0
   423  0070                     	ds	3
   424  0073                     ??_spiWrite:
   425  0073                     ??_spiRead:	
   426                           ; 1 bytes @ 0x3
   427                           
   428  0073                     ?_spiInit:	
   429                           ; 1 bytes @ 0x3
   430                           
   431  0073                     ??_spiReceiveWait:	
   432                           ; 1 bytes @ 0x3
   433                           
   434  0073                     ?___bmul:	
   435                           ; 1 bytes @ 0x3
   436                           
   437  0073                     ?___wmul:	
   438                           ; 1 bytes @ 0x3
   439                           
   440  0073                     spiInit@sDataSample:	
   441                           ; 2 bytes @ 0x3
   442                           
   443  0073                     spiWrite@dat:	
   444                           ; 1 bytes @ 0x3
   445                           
   446  0073                     ___bmul@multiplicand:	
   447                           ; 1 bytes @ 0x3
   448                           
   449  0073                     ___wmul@multiplier:	
   450                           ; 1 bytes @ 0x3
   451                           
   452                           
   453                           ; 2 bytes @ 0x3
   454  0073                     	ds	1
   455  0074                     ??___bmul:
   456  0074                     spiInit@sClockIdle:	
   457                           ; 1 bytes @ 0x4
   458                           
   459                           
   460                           ; 1 bytes @ 0x4
   461  0074                     	ds	1
   462  0075                     spiInit@sTransmitEdge:
   463  0075                     ___bmul@product:	
   464                           ; 1 bytes @ 0x5
   465                           
   466  0075                     ___wmul@multiplicand:	
   467                           ; 1 bytes @ 0x5
   468                           
   469                           
   470                           ; 2 bytes @ 0x5
   471  0075                     	ds	1
   472  0076                     ??_spiInit:
   473  0076                     spiInit@sType:	
   474                           ; 1 bytes @ 0x6
   475                           
   476  0076                     ___bmul@multiplier:	
   477                           ; 1 bytes @ 0x6
   478                           
   479                           
   480                           ; 1 bytes @ 0x6
   481  0076                     	ds	1
   482  0077                     ??_setup:
   483  0077                     ??___wmul:	
   484                           ; 1 bytes @ 0x7
   485                           
   486  0077                     ??___awdiv:	
   487                           ; 1 bytes @ 0x7
   488                           
   489                           
   490                           ; 1 bytes @ 0x7
   491  0077                     	ds	1
   492                           
   493                           	psect	cstackBANK0
   494  0020                     __pcstackBANK0:
   495  0020                     ___wmul@product:
   496                           
   497                           ; 2 bytes @ 0x0
   498  0020                     	ds	2
   499  0022                     ?___awdiv:
   500  0022                     ___awdiv@divisor:	
   501                           ; 2 bytes @ 0x2
   502                           
   503                           
   504                           ; 2 bytes @ 0x2
   505  0022                     	ds	2
   506  0024                     ___awdiv@dividend:
   507                           
   508                           ; 2 bytes @ 0x4
   509  0024                     	ds	2
   510  0026                     ___awdiv@counter:
   511                           
   512                           ; 1 bytes @ 0x6
   513  0026                     	ds	1
   514  0027                     ___awdiv@sign:
   515                           
   516                           ; 1 bytes @ 0x7
   517  0027                     	ds	1
   518  0028                     ___awdiv@quotient:
   519                           
   520                           ; 2 bytes @ 0x8
   521  0028                     	ds	2
   522  002A                     ??_main:
   523                           
   524                           ; 1 bytes @ 0xA
   525  002A                     	ds	8
   526  0032                     _main$1110:
   527                           
   528                           ; 2 bytes @ 0x12
   529  0032                     	ds	2
   530                           
   531                           	psect	maintext
   532  0025                     __pmaintext:	
   533 ;;
   534 ;;Main: autosize = 0, tempsize = 8, incstack = 0, save=0
   535 ;;
   536 ;; *************** function _main *****************
   537 ;; Defined at:
   538 ;;		line 83 in file "Lab03_main_master.c"
   539 ;; Parameters:    Size  Location     Type
   540 ;;		None
   541 ;; Auto vars:     Size  Location     Type
   542 ;;		None
   543 ;; Return value:  Size  Location     Type
   544 ;;                  1    wreg      void 
   545 ;; Registers used:
   546 ;;		wreg, status,2, status,0, pclath, cstack
   547 ;; Tracked objects:
   548 ;;		On entry : B00/0
   549 ;;		On exit  : 0/0
   550 ;;		Unchanged: 0/0
   551 ;; Data sizes:     COMMON   BANK0   BANK1   BANK3   BANK2
   552 ;;      Params:         0       0       0       0       0
   553 ;;      Locals:         0       2       0       0       0
   554 ;;      Temps:          0       8       0       0       0
   555 ;;      Totals:         0      10       0       0       0
   556 ;;Total ram usage:       10 bytes
   557 ;; Hardware stack levels required when called:    3
   558 ;; This function calls:
   559 ;;		___awdiv
   560 ;;		___bmul
   561 ;;		___wmul
   562 ;;		_setup
   563 ;;		_spiRead
   564 ;;		_spiWrite
   565 ;; This function is called by:
   566 ;;		Startup code after reset
   567 ;; This function uses a non-reentrant model
   568 ;;
   569                           
   570                           
   571                           ;psect for function _main
   572  0025                     _main:
   573  0025                     l1342:	
   574                           ;incstack = 0
   575                           ; Regs used in _main: [wreg+status,2+status,0+pclath+cstack]
   576                           
   577                           
   578                           ;Lab03_main_master.c: 84:                 contador--;
   579  0025  120A  118A  2311  120A  118A  	fcall	_setup
   580  002A                     l1344:
   581                           
   582                           ;Lab03_main_master.c: 86:                     contador = 0;
   583  002A  1283               	bcf	3,5	;RP0=0, select bank0
   584  002B  1303               	bcf	3,6	;RP1=0, select bank0
   585  002C  1107               	bcf	7,2	;volatile
   586  002D                     l1346:
   587                           
   588                           ;Lab03_main_master.c: 87:                 }
   589  002D  3003               	movlw	3
   590  002E  1283               	bcf	3,5	;RP0=0, select bank0
   591  002F  1303               	bcf	3,6	;RP1=0, select bank0
   592  0030  00AB               	movwf	??_main+1
   593  0031  3097               	movlw	151
   594  0032  00AA               	movwf	??_main
   595  0033                     u827:
   596  0033  0BAA               	decfsz	??_main,f
   597  0034  2833               	goto	u827
   598  0035  0BAB               	decfsz	??_main+1,f
   599  0036  2833               	goto	u827
   600  0037                     l1348:
   601                           
   602                           ;Lab03_main_master.c: 89:         }
   603  0037  1283               	bcf	3,5	;RP0=0, select bank0
   604  0038  1303               	bcf	3,6	;RP1=0, select bank0
   605  0039  083D               	movf	_POT,w
   606  003A  120A  118A  23BE  120A  118A  	fcall	_spiWrite
   607  003F                     l1350:
   608                           
   609                           ;Lab03_main_master.c: 90:         else {
   610  003F  1283               	bcf	3,5	;RP0=0, select bank0
   611  0040  1303               	bcf	3,6	;RP1=0, select bank0
   612  0041  033D               	decf	_POT,w
   613  0042  1D03               	btfss	3,2
   614  0043  2845               	goto	u791
   615  0044  2846               	goto	u790
   616  0045                     u791:
   617  0045  2855               	goto	l1356
   618  0046                     u790:
   619  0046                     l1352:
   620                           
   621                           ;Lab03_main_master.c: 91:         var_temp = RCREG;
   622  0046  120A  118A  23AE  120A  118A  	fcall	_spiRead
   623  004B  1283               	bcf	3,5	;RP0=0, select bank0
   624  004C  1303               	bcf	3,6	;RP1=0, select bank0
   625  004D  00AA               	movwf	??_main
   626  004E  082A               	movf	??_main,w
   627  004F  00BB               	movwf	_POT2
   628  0050                     l1354:
   629                           
   630                           ;Lab03_main_master.c: 92:         }
   631  0050  3002               	movlw	2
   632  0051  00AA               	movwf	??_main
   633  0052  082A               	movf	??_main,w
   634  0053  00BD               	movwf	_POT
   635                           
   636                           ;Lab03_main_master.c: 93:     }
   637  0054  2867               	goto	l1362
   638  0055                     l1356:
   639  0055  3002               	movlw	2
   640  0056  063D               	xorwf	_POT,w
   641  0057  1D03               	btfss	3,2
   642  0058  285A               	goto	u801
   643  0059  285B               	goto	u800
   644  005A                     u801:
   645  005A  2867               	goto	l1362
   646  005B                     u800:
   647  005B                     l1358:
   648                           
   649                           ;Lab03_main_master.c: 95:     if (TXIF == 1){
   650  005B  120A  118A  23AE  120A  118A  	fcall	_spiRead
   651  0060  1283               	bcf	3,5	;RP0=0, select bank0
   652  0061  1303               	bcf	3,6	;RP1=0, select bank0
   653  0062  00AA               	movwf	??_main
   654  0063  082A               	movf	??_main,w
   655  0064  00BC               	movwf	_POT1
   656  0065                     l1360:
   657                           
   658                           ;Lab03_main_master.c: 96:         if (flag == 0){
   659  0065  01BD               	clrf	_POT
   660  0066  0ABD               	incf	_POT,f
   661  0067                     l1362:
   662                           
   663                           ;Lab03_main_master.c: 98:             flag = 1;
   664  0067  3003               	movlw	3
   665  0068  1283               	bcf	3,5	;RP0=0, select bank0
   666  0069  1303               	bcf	3,6	;RP1=0, select bank0
   667  006A  00AB               	movwf	??_main+1
   668  006B  3097               	movlw	151
   669  006C  00AA               	movwf	??_main
   670  006D                     u837:
   671  006D  0BAA               	decfsz	??_main,f
   672  006E  286D               	goto	u837
   673  006F  0BAB               	decfsz	??_main+1,f
   674  0070  286D               	goto	u837
   675  0071                     l1364:
   676                           
   677                           ;Lab03_main_master.c: 99:         } else if (flag == 1){
   678  0071  1283               	bcf	3,5	;RP0=0, select bank0
   679  0072  1303               	bcf	3,6	;RP1=0, select bank0
   680  0073  1507               	bsf	7,2	;volatile
   681  0074                     l1366:
   682                           
   683                           ;Lab03_main_master.c: 100:             TXREG = 0x2E;
   684  0074  3003               	movlw	3
   685  0075  1283               	bcf	3,5	;RP0=0, select bank0
   686  0076  1303               	bcf	3,6	;RP1=0, select bank0
   687  0077  00AC               	movwf	??_main+2
   688  0078  308A               	movlw	138
   689  0079  00AB               	movwf	??_main+1
   690  007A  3055               	movlw	85
   691  007B  00AA               	movwf	??_main
   692  007C                     u847:
   693  007C  0BAA               	decfsz	??_main,f
   694  007D  287C               	goto	u847
   695  007E  0BAB               	decfsz	??_main+1,f
   696  007F  287C               	goto	u847
   697  0080  0BAC               	decfsz	??_main+2,f
   698  0081  287C               	goto	u847
   699  0082                     l1368:
   700                           
   701                           ;Lab03_main_master.c: 102:         } else if (flag == 2){
   702  0082  3010               	movlw	16
   703  0083  1283               	bcf	3,5	;RP0=0, select bank0
   704  0084  1303               	bcf	3,6	;RP1=0, select bank0
   705  0085  023A               	subwf	_cont,w
   706  0086  1C03               	skipc
   707  0087  2889               	goto	u811
   708  0088  288A               	goto	u810
   709  0089                     u811:
   710  0089  288E               	goto	l1374
   711  008A                     u810:
   712  008A                     l1370:
   713                           
   714                           ;Lab03_main_master.c: 103:             TXREG = display_decimal + 48;
   715  008A  01BA               	clrf	_cont
   716  008B                     l1372:
   717                           
   718                           ;Lab03_main_master.c: 104:             flag = 3;
   719  008B  1683               	bsf	3,5	;RP0=1, select bank1
   720  008C  1303               	bcf	3,6	;RP1=0, select bank1
   721  008D  160C               	bsf	12,4	;volatile
   722  008E                     l1374:
   723                           
   724                           ;Lab03_main_master.c: 108:         } else if (flag == 4){
   725  008E  3033               	movlw	51
   726  008F  1283               	bcf	3,5	;RP0=0, select bank0
   727  0090  00A2               	movwf	___awdiv@divisor
   728  0091  3000               	movlw	0
   729  0092  00A3               	movwf	___awdiv@divisor+1
   730  0093  083C               	movf	_POT1,w
   731  0094  00AA               	movwf	??_main
   732  0095  01AB               	clrf	??_main+1
   733  0096  082A               	movf	??_main,w
   734  0097  00A4               	movwf	___awdiv@dividend
   735  0098  082B               	movf	??_main+1,w
   736  0099  00A5               	movwf	___awdiv@dividend+1
   737  009A  120A  118A  22A8  120A  118A  	fcall	___awdiv
   738  009F  1283               	bcf	3,5	;RP0=0, select bank0
   739  00A0  1303               	bcf	3,6	;RP1=0, select bank0
   740  00A1  0822               	movf	?___awdiv,w
   741  00A2  00AC               	movwf	??_main+2
   742  00A3  082C               	movf	??_main+2,w
   743  00A4  00B9               	movwf	_display_unidad
   744  00A5                     l1376:
   745                           
   746                           ;Lab03_main_master.c: 109:             TXREG = 0x2D;
   747  00A5  3033               	movlw	51
   748  00A6  00A2               	movwf	___awdiv@divisor
   749  00A7  3000               	movlw	0
   750  00A8  00A3               	movwf	___awdiv@divisor+1
   751  00A9  083C               	movf	_POT1,w
   752  00AA  00AA               	movwf	??_main
   753  00AB  01AB               	clrf	??_main+1
   754  00AC  082A               	movf	??_main,w
   755  00AD  00F3               	movwf	___wmul@multiplier
   756  00AE  082B               	movf	??_main+1,w
   757  00AF  00F4               	movwf	___wmul@multiplier+1
   758  00B0  3064               	movlw	100
   759  00B1  00F5               	movwf	___wmul@multiplicand
   760  00B2  3000               	movlw	0
   761  00B3  00F6               	movwf	___wmul@multiplicand+1
   762  00B4  120A  118A  2358  120A  118A  	fcall	___wmul
   763  00B9  0874               	movf	?___wmul+1,w
   764  00BA  1283               	bcf	3,5	;RP0=0, select bank0
   765  00BB  1303               	bcf	3,6	;RP1=0, select bank0
   766  00BC  00A5               	movwf	___awdiv@dividend+1
   767  00BD  0873               	movf	?___wmul,w
   768  00BE  00A4               	movwf	___awdiv@dividend
   769  00BF  120A  118A  22A8  120A  118A  	fcall	___awdiv
   770  00C4  1283               	bcf	3,5	;RP0=0, select bank0
   771  00C5  1303               	bcf	3,6	;RP1=0, select bank0
   772  00C6  0822               	movf	?___awdiv,w
   773  00C7  00AC               	movwf	??_main+2
   774  00C8  0823               	movf	?___awdiv+1,w
   775  00C9  00AD               	movwf	??_main+3
   776  00CA  0839               	movf	_display_unidad,w
   777  00CB  00AE               	movwf	??_main+4
   778  00CC  01AF               	clrf	??_main+5
   779  00CD  082E               	movf	??_main+4,w
   780  00CE  00F3               	movwf	___wmul@multiplier
   781  00CF  082F               	movf	??_main+5,w
   782  00D0  00F4               	movwf	___wmul@multiplier+1
   783  00D1  309C               	movlw	156
   784  00D2  00F5               	movwf	___wmul@multiplicand
   785  00D3  30FF               	movlw	255
   786  00D4  00F6               	movwf	___wmul@multiplicand+1
   787  00D5  120A  118A  2358  120A  118A  	fcall	___wmul
   788  00DA  0873               	movf	?___wmul,w
   789  00DB  1283               	bcf	3,5	;RP0=0, select bank0
   790  00DC  1303               	bcf	3,6	;RP1=0, select bank0
   791  00DD  072C               	addwf	??_main+2,w
   792  00DE  00B2               	movwf	_main$1110
   793  00DF  0874               	movf	?___wmul+1,w
   794  00E0  1803               	skipnc
   795  00E1  0A74               	incf	?___wmul+1,w
   796  00E2  072D               	addwf	??_main+3,w
   797  00E3  00B3               	movwf	_main$1110+1
   798  00E4                     l1378:
   799                           
   800                           ;Lab03_main_master.c: 109:             TXREG = 0x2D;
   801  00E4  300A               	movlw	10
   802  00E5  00A2               	movwf	___awdiv@divisor
   803  00E6  3000               	movlw	0
   804  00E7  00A3               	movwf	___awdiv@divisor+1
   805  00E8  0833               	movf	_main$1110+1,w
   806  00E9  00A5               	movwf	___awdiv@dividend+1
   807  00EA  0832               	movf	_main$1110,w
   808  00EB  00A4               	movwf	___awdiv@dividend
   809  00EC  120A  118A  22A8  120A  118A  	fcall	___awdiv
   810  00F1  1283               	bcf	3,5	;RP0=0, select bank0
   811  00F2  1303               	bcf	3,6	;RP1=0, select bank0
   812  00F3  0822               	movf	?___awdiv,w
   813  00F4  00AA               	movwf	??_main
   814  00F5  082A               	movf	??_main,w
   815  00F6  00B8               	movwf	_display_decimal
   816  00F7                     l1380:
   817                           
   818                           ;Lab03_main_master.c: 110:             flag = 5;
   819  00F7  3033               	movlw	51
   820  00F8  00A2               	movwf	___awdiv@divisor
   821  00F9  3000               	movlw	0
   822  00FA  00A3               	movwf	___awdiv@divisor+1
   823  00FB  083C               	movf	_POT1,w
   824  00FC  00AA               	movwf	??_main
   825  00FD  01AB               	clrf	??_main+1
   826  00FE  082A               	movf	??_main,w
   827  00FF  00F3               	movwf	___wmul@multiplier
   828  0100  082B               	movf	??_main+1,w
   829  0101  00F4               	movwf	___wmul@multiplier+1
   830  0102  3064               	movlw	100
   831  0103  00F5               	movwf	___wmul@multiplicand
   832  0104  3000               	movlw	0
   833  0105  00F6               	movwf	___wmul@multiplicand+1
   834  0106  120A  118A  2358  120A  118A  	fcall	___wmul
   835  010B  0874               	movf	?___wmul+1,w
   836  010C  1283               	bcf	3,5	;RP0=0, select bank0
   837  010D  1303               	bcf	3,6	;RP1=0, select bank0
   838  010E  00A5               	movwf	___awdiv@dividend+1
   839  010F  0873               	movf	?___wmul,w
   840  0110  00A4               	movwf	___awdiv@dividend
   841  0111  120A  118A  22A8  120A  118A  	fcall	___awdiv
   842  0116  1283               	bcf	3,5	;RP0=0, select bank0
   843  0117  1303               	bcf	3,6	;RP1=0, select bank0
   844  0118  0822               	movf	?___awdiv,w
   845  0119  00AC               	movwf	??_main+2
   846  011A  0823               	movf	?___awdiv+1,w
   847  011B  00AD               	movwf	??_main+3
   848  011C  309C               	movlw	156
   849  011D  00AE               	movwf	??_main+4
   850  011E  082E               	movf	??_main+4,w
   851  011F  00F3               	movwf	___bmul@multiplicand
   852  0120  0839               	movf	_display_unidad,w
   853  0121  120A  118A  2399  120A  118A  	fcall	___bmul
   854  0126  1283               	bcf	3,5	;RP0=0, select bank0
   855  0127  1303               	bcf	3,6	;RP1=0, select bank0
   856  0128  00AF               	movwf	??_main+5
   857  0129  30F6               	movlw	246
   858  012A  00B0               	movwf	??_main+6
   859  012B  0830               	movf	??_main+6,w
   860  012C  00F3               	movwf	___bmul@multiplicand
   861  012D  0838               	movf	_display_decimal,w
   862  012E  120A  118A  2399  120A  118A  	fcall	___bmul
   863  0133  1283               	bcf	3,5	;RP0=0, select bank0
   864  0134  1303               	bcf	3,6	;RP1=0, select bank0
   865  0135  072F               	addwf	??_main+5,w
   866  0136  072C               	addwf	??_main+2,w
   867  0137  00B1               	movwf	??_main+7
   868  0138  0831               	movf	??_main+7,w
   869  0139  00B7               	movwf	_display_decimal_2
   870  013A                     l1382:
   871                           
   872                           ;Lab03_main_master.c: 112:         else if (flag == 5){
   873  013A  3033               	movlw	51
   874  013B  00A2               	movwf	___awdiv@divisor
   875  013C  3000               	movlw	0
   876  013D  00A3               	movwf	___awdiv@divisor+1
   877  013E  083B               	movf	_POT2,w
   878  013F  00AA               	movwf	??_main
   879  0140  01AB               	clrf	??_main+1
   880  0141  082A               	movf	??_main,w
   881  0142  00A4               	movwf	___awdiv@dividend
   882  0143  082B               	movf	??_main+1,w
   883  0144  00A5               	movwf	___awdiv@dividend+1
   884  0145  120A  118A  22A8  120A  118A  	fcall	___awdiv
   885  014A  1283               	bcf	3,5	;RP0=0, select bank0
   886  014B  1303               	bcf	3,6	;RP1=0, select bank0
   887  014C  0822               	movf	?___awdiv,w
   888  014D  00AC               	movwf	??_main+2
   889  014E  082C               	movf	??_main+2,w
   890  014F  00B6               	movwf	_display_unidad_s2
   891  0150                     l1384:
   892                           
   893                           ;Lab03_main_master.c: 113:             TXREG = display_unidad_s2 + 48;
   894  0150  3033               	movlw	51
   895  0151  00A2               	movwf	___awdiv@divisor
   896  0152  3000               	movlw	0
   897  0153  00A3               	movwf	___awdiv@divisor+1
   898  0154  083B               	movf	_POT2,w
   899  0155  00AA               	movwf	??_main
   900  0156  01AB               	clrf	??_main+1
   901  0157  082A               	movf	??_main,w
   902  0158  00F3               	movwf	___wmul@multiplier
   903  0159  082B               	movf	??_main+1,w
   904  015A  00F4               	movwf	___wmul@multiplier+1
   905  015B  3064               	movlw	100
   906  015C  00F5               	movwf	___wmul@multiplicand
   907  015D  3000               	movlw	0
   908  015E  00F6               	movwf	___wmul@multiplicand+1
   909  015F  120A  118A  2358  120A  118A  	fcall	___wmul
   910  0164  0874               	movf	?___wmul+1,w
   911  0165  1283               	bcf	3,5	;RP0=0, select bank0
   912  0166  1303               	bcf	3,6	;RP1=0, select bank0
   913  0167  00A5               	movwf	___awdiv@dividend+1
   914  0168  0873               	movf	?___wmul,w
   915  0169  00A4               	movwf	___awdiv@dividend
   916  016A  120A  118A  22A8  120A  118A  	fcall	___awdiv
   917  016F  1283               	bcf	3,5	;RP0=0, select bank0
   918  0170  1303               	bcf	3,6	;RP1=0, select bank0
   919  0171  0822               	movf	?___awdiv,w
   920  0172  00AC               	movwf	??_main+2
   921  0173  0823               	movf	?___awdiv+1,w
   922  0174  00AD               	movwf	??_main+3
   923  0175  0836               	movf	_display_unidad_s2,w
   924  0176  00AE               	movwf	??_main+4
   925  0177  01AF               	clrf	??_main+5
   926  0178  082E               	movf	??_main+4,w
   927  0179  00F3               	movwf	___wmul@multiplier
   928  017A  082F               	movf	??_main+5,w
   929  017B  00F4               	movwf	___wmul@multiplier+1
   930  017C  309C               	movlw	156
   931  017D  00F5               	movwf	___wmul@multiplicand
   932  017E  30FF               	movlw	255
   933  017F  00F6               	movwf	___wmul@multiplicand+1
   934  0180  120A  118A  2358  120A  118A  	fcall	___wmul
   935  0185  0873               	movf	?___wmul,w
   936  0186  1283               	bcf	3,5	;RP0=0, select bank0
   937  0187  1303               	bcf	3,6	;RP1=0, select bank0
   938  0188  072C               	addwf	??_main+2,w
   939  0189  00B2               	movwf	_main$1110
   940  018A  0874               	movf	?___wmul+1,w
   941  018B  1803               	skipnc
   942  018C  0A74               	incf	?___wmul+1,w
   943  018D  072D               	addwf	??_main+3,w
   944  018E  00B3               	movwf	_main$1110+1
   945  018F                     l1386:
   946                           
   947                           ;Lab03_main_master.c: 113:             TXREG = display_unidad_s2 + 48;
   948  018F  300A               	movlw	10
   949  0190  00A2               	movwf	___awdiv@divisor
   950  0191  3000               	movlw	0
   951  0192  00A3               	movwf	___awdiv@divisor+1
   952  0193  0833               	movf	_main$1110+1,w
   953  0194  00A5               	movwf	___awdiv@dividend+1
   954  0195  0832               	movf	_main$1110,w
   955  0196  00A4               	movwf	___awdiv@dividend
   956  0197  120A  118A  22A8  120A  118A  	fcall	___awdiv
   957  019C  1283               	bcf	3,5	;RP0=0, select bank0
   958  019D  1303               	bcf	3,6	;RP1=0, select bank0
   959  019E  0822               	movf	?___awdiv,w
   960  019F  00AA               	movwf	??_main
   961  01A0  082A               	movf	??_main,w
   962  01A1  00B5               	movwf	_display_decimal_s2
   963  01A2                     l1388:
   964                           
   965                           ;Lab03_main_master.c: 114:             flag = 6;
   966  01A2  3033               	movlw	51
   967  01A3  00A2               	movwf	___awdiv@divisor
   968  01A4  3000               	movlw	0
   969  01A5  00A3               	movwf	___awdiv@divisor+1
   970  01A6  083B               	movf	_POT2,w
   971  01A7  00AA               	movwf	??_main
   972  01A8  01AB               	clrf	??_main+1
   973  01A9  082A               	movf	??_main,w
   974  01AA  00F3               	movwf	___wmul@multiplier
   975  01AB  082B               	movf	??_main+1,w
   976  01AC  00F4               	movwf	___wmul@multiplier+1
   977  01AD  3064               	movlw	100
   978  01AE  00F5               	movwf	___wmul@multiplicand
   979  01AF  3000               	movlw	0
   980  01B0  00F6               	movwf	___wmul@multiplicand+1
   981  01B1  120A  118A  2358  120A  118A  	fcall	___wmul
   982  01B6  0874               	movf	?___wmul+1,w
   983  01B7  1283               	bcf	3,5	;RP0=0, select bank0
   984  01B8  1303               	bcf	3,6	;RP1=0, select bank0
   985  01B9  00A5               	movwf	___awdiv@dividend+1
   986  01BA  0873               	movf	?___wmul,w
   987  01BB  00A4               	movwf	___awdiv@dividend
   988  01BC  120A  118A  22A8  120A  118A  	fcall	___awdiv
   989  01C1  1283               	bcf	3,5	;RP0=0, select bank0
   990  01C2  1303               	bcf	3,6	;RP1=0, select bank0
   991  01C3  0822               	movf	?___awdiv,w
   992  01C4  00AC               	movwf	??_main+2
   993  01C5  0823               	movf	?___awdiv+1,w
   994  01C6  00AD               	movwf	??_main+3
   995  01C7  309C               	movlw	156
   996  01C8  00AE               	movwf	??_main+4
   997  01C9  082E               	movf	??_main+4,w
   998  01CA  00F3               	movwf	___bmul@multiplicand
   999  01CB  0836               	movf	_display_unidad_s2,w
  1000  01CC  120A  118A  2399  120A  118A  	fcall	___bmul
  1001  01D1  1283               	bcf	3,5	;RP0=0, select bank0
  1002  01D2  1303               	bcf	3,6	;RP1=0, select bank0
  1003  01D3  00AF               	movwf	??_main+5
  1004  01D4  30F6               	movlw	246
  1005  01D5  00B0               	movwf	??_main+6
  1006  01D6  0830               	movf	??_main+6,w
  1007  01D7  00F3               	movwf	___bmul@multiplicand
  1008  01D8  0835               	movf	_display_decimal_s2,w
  1009  01D9  120A  118A  2399  120A  118A  	fcall	___bmul
  1010  01DE  1283               	bcf	3,5	;RP0=0, select bank0
  1011  01DF  1303               	bcf	3,6	;RP1=0, select bank0
  1012  01E0  072F               	addwf	??_main+5,w
  1013  01E1  072C               	addwf	??_main+2,w
  1014  01E2  00B1               	movwf	??_main+7
  1015  01E3  0831               	movf	??_main+7,w
  1016  01E4  00B4               	movwf	_display_decimal_2_s2
  1017  01E5  282A               	goto	l1344
  1018  01E6  120A  118A  280C   	ljmp	start
  1019  01E9                     __end_of_main:
  1020                           
  1021                           	psect	text1
  1022  03BE                     __ptext1:	
  1023 ;; *************** function _spiWrite *****************
  1024 ;; Defined at:
  1025 ;;		line 34 in file "SPI.c"
  1026 ;; Parameters:    Size  Location     Type
  1027 ;;  dat             1    wreg     unsigned char 
  1028 ;; Auto vars:     Size  Location     Type
  1029 ;;  dat             1    3[COMMON] unsigned char 
  1030 ;; Return value:  Size  Location     Type
  1031 ;;                  1    wreg      void 
  1032 ;; Registers used:
  1033 ;;		wreg
  1034 ;; Tracked objects:
  1035 ;;		On entry : 0/0
  1036 ;;		On exit  : 0/0
  1037 ;;		Unchanged: 0/0
  1038 ;; Data sizes:     COMMON   BANK0   BANK1   BANK3   BANK2
  1039 ;;      Params:         0       0       0       0       0
  1040 ;;      Locals:         1       0       0       0       0
  1041 ;;      Temps:          0       0       0       0       0
  1042 ;;      Totals:         1       0       0       0       0
  1043 ;;Total ram usage:        1 bytes
  1044 ;; Hardware stack levels used:    1
  1045 ;; Hardware stack levels required when called:    1
  1046 ;; This function calls:
  1047 ;;		Nothing
  1048 ;; This function is called by:
  1049 ;;		_main
  1050 ;; This function uses a non-reentrant model
  1051 ;;
  1052                           
  1053                           
  1054                           ;psect for function _spiWrite
  1055  03BE                     _spiWrite:
  1056                           
  1057                           ;incstack = 0
  1058                           ; Regs used in _spiWrite: [wreg]
  1059                           ;spiWrite@dat stored from wreg
  1060  03BE  00F3               	movwf	spiWrite@dat
  1061  03BF                     l1114:
  1062                           
  1063                           ;SPI.c: 34: void spiWrite(char dat);SPI.c: 35: {;SPI.c: 36:     SSPBUF = dat;
  1064  03BF  0873               	movf	spiWrite@dat,w
  1065  03C0  1283               	bcf	3,5	;RP0=0, select bank0
  1066  03C1  1303               	bcf	3,6	;RP1=0, select bank0
  1067  03C2  0093               	movwf	19	;volatile
  1068  03C3                     l165:
  1069  03C3  0008               	return
  1070  03C4                     __end_of_spiWrite:
  1071                           
  1072                           	psect	text2
  1073  03AE                     __ptext2:	
  1074 ;; *************** function _spiRead *****************
  1075 ;; Defined at:
  1076 ;;		line 39 in file "SPI.c"
  1077 ;; Parameters:    Size  Location     Type
  1078 ;;		None
  1079 ;; Auto vars:     Size  Location     Type
  1080 ;;		None
  1081 ;; Return value:  Size  Location     Type
  1082 ;;                  1    wreg      unsigned char 
  1083 ;; Registers used:
  1084 ;;		wreg, status,2, status,0, pclath, cstack
  1085 ;; Tracked objects:
  1086 ;;		On entry : 0/0
  1087 ;;		On exit  : 0/0
  1088 ;;		Unchanged: 0/0
  1089 ;; Data sizes:     COMMON   BANK0   BANK1   BANK3   BANK2
  1090 ;;      Params:         0       0       0       0       0
  1091 ;;      Locals:         0       0       0       0       0
  1092 ;;      Temps:          0       0       0       0       0
  1093 ;;      Totals:         0       0       0       0       0
  1094 ;;Total ram usage:        0 bytes
  1095 ;; Hardware stack levels used:    1
  1096 ;; Hardware stack levels required when called:    2
  1097 ;; This function calls:
  1098 ;;		_spiReceiveWait
  1099 ;; This function is called by:
  1100 ;;		_main
  1101 ;; This function uses a non-reentrant model
  1102 ;;
  1103                           
  1104                           
  1105                           ;psect for function _spiRead
  1106  03AE                     _spiRead:
  1107  03AE                     l1116:	
  1108                           ;incstack = 0
  1109                           ; Regs used in _spiRead: [wreg+status,2+status,0+pclath+cstack]
  1110                           
  1111                           
  1112                           ;SPI.c: 41:     spiReceiveWait();
  1113  03AE  120A  118A  23B7  120A  118A  	fcall	_spiReceiveWait
  1114  03B3                     l1118:
  1115                           
  1116                           ;SPI.c: 42:     return(SSPBUF);
  1117  03B3  1283               	bcf	3,5	;RP0=0, select bank0
  1118  03B4  1303               	bcf	3,6	;RP1=0, select bank0
  1119  03B5  0813               	movf	19,w	;volatile
  1120  03B6                     l168:
  1121  03B6  0008               	return
  1122  03B7                     __end_of_spiRead:
  1123                           
  1124                           	psect	text3
  1125  03B7                     __ptext3:	
  1126 ;; *************** function _spiReceiveWait *****************
  1127 ;; Defined at:
  1128 ;;		line 29 in file "SPI.c"
  1129 ;; Parameters:    Size  Location     Type
  1130 ;;		None
  1131 ;; Auto vars:     Size  Location     Type
  1132 ;;		None
  1133 ;; Return value:  Size  Location     Type
  1134 ;;                  1    wreg      void 
  1135 ;; Registers used:
  1136 ;;		None
  1137 ;; Tracked objects:
  1138 ;;		On entry : 0/0
  1139 ;;		On exit  : 0/0
  1140 ;;		Unchanged: 0/0
  1141 ;; Data sizes:     COMMON   BANK0   BANK1   BANK3   BANK2
  1142 ;;      Params:         0       0       0       0       0
  1143 ;;      Locals:         0       0       0       0       0
  1144 ;;      Temps:          0       0       0       0       0
  1145 ;;      Totals:         0       0       0       0       0
  1146 ;;Total ram usage:        0 bytes
  1147 ;; Hardware stack levels used:    1
  1148 ;; Hardware stack levels required when called:    1
  1149 ;; This function calls:
  1150 ;;		Nothing
  1151 ;; This function is called by:
  1152 ;;		_spiRead
  1153 ;; This function uses a non-reentrant model
  1154 ;;
  1155                           
  1156                           
  1157                           ;psect for function _spiReceiveWait
  1158  03B7                     _spiReceiveWait:
  1159  03B7                     l1054:	
  1160                           ;incstack = 0
  1161                           ; Regs used in _spiReceiveWait: []
  1162                           
  1163  03B7                     l159:	
  1164                           ;SPI.c: 31:     while ( !SSPSTATbits.BF );
  1165                           
  1166  03B7  1683               	bsf	3,5	;RP0=1, select bank1
  1167  03B8  1303               	bcf	3,6	;RP1=0, select bank1
  1168  03B9  1C14               	btfss	20,0	;volatile
  1169  03BA  2BBC               	goto	u391
  1170  03BB  2BBD               	goto	u390
  1171  03BC                     u391:
  1172  03BC  2BB7               	goto	l159
  1173  03BD                     u390:
  1174  03BD                     l162:
  1175  03BD  0008               	return
  1176  03BE                     __end_of_spiReceiveWait:
  1177                           
  1178                           	psect	text4
  1179  0311                     __ptext4:	
  1180 ;; *************** function _setup *****************
  1181 ;; Defined at:
  1182 ;;		line 190 in file "Lab03_main_master.c"
  1183 ;; Parameters:    Size  Location     Type
  1184 ;;		None
  1185 ;; Auto vars:     Size  Location     Type
  1186 ;;		None
  1187 ;; Return value:  Size  Location     Type
  1188 ;;                  1    wreg      void 
  1189 ;; Registers used:
  1190 ;;		wreg, status,2, status,0, pclath, cstack
  1191 ;; Tracked objects:
  1192 ;;		On entry : 0/0
  1193 ;;		On exit  : 0/0
  1194 ;;		Unchanged: 0/0
  1195 ;; Data sizes:     COMMON   BANK0   BANK1   BANK3   BANK2
  1196 ;;      Params:         0       0       0       0       0
  1197 ;;      Locals:         0       0       0       0       0
  1198 ;;      Temps:          0       0       0       0       0
  1199 ;;      Totals:         0       0       0       0       0
  1200 ;;Total ram usage:        0 bytes
  1201 ;; Hardware stack levels used:    1
  1202 ;; Hardware stack levels required when called:    2
  1203 ;; This function calls:
  1204 ;;		_spiInit
  1205 ;; This function is called by:
  1206 ;;		_main
  1207 ;; This function uses a non-reentrant model
  1208 ;;
  1209                           
  1210                           
  1211                           ;psect for function _setup
  1212  0311                     _setup:
  1213  0311                     l1056:	
  1214                           ;incstack = 0
  1215                           ; Regs used in _setup: [wreg+status,2+status,0+pclath+cstack]
  1216                           
  1217  0311  1683               	bsf	3,5	;RP0=1, select bank1
  1218  0312  1303               	bcf	3,6	;RP1=0, select bank1
  1219  0313  170F               	bsf	15,6	;volatile
  1220  0314  168F               	bsf	15,5	;volatile
  1221  0315  160F               	bsf	15,4	;volatile
  1222  0316  140F               	bsf	15,0	;volatile
  1223  0317                     l1058:
  1224  0317  1683               	bsf	3,5	;RP0=1, select bank3
  1225  0318  1703               	bsf	3,6	;RP1=1, select bank3
  1226  0319  0189               	clrf	9	;volatile
  1227  031A  0188               	clrf	8	;volatile
  1228  031B  1683               	bsf	3,5	;RP0=1, select bank1
  1229  031C  1303               	bcf	3,6	;RP1=0, select bank1
  1230  031D  0185               	clrf	5	;volatile
  1231  031E                     l1060:
  1232  031E  3090               	movlw	144
  1233  031F  0087               	movwf	7	;volatile
  1234  0320                     l1062:
  1235  0320  0188               	clrf	8	;volatile
  1236  0321                     l1064:
  1237  0321  0189               	clrf	9	;volatile
  1238  0322                     l1066:
  1239  0322  1283               	bcf	3,5	;RP0=0, select bank0
  1240  0323  1303               	bcf	3,6	;RP1=0, select bank0
  1241  0324  0185               	clrf	5	;volatile
  1242  0325                     l1068:
  1243  0325  0187               	clrf	7	;volatile
  1244  0326                     l1070:
  1245  0326  0188               	clrf	8	;volatile
  1246  0327                     l1072:
  1247  0327  0189               	clrf	9	;volatile
  1248  0328                     l1074:
  1249  0328  178B               	bsf	11,7	;volatile
  1250  0329                     l1076:
  1251  0329  168B               	bsf	11,5	;volatile
  1252  032A                     l1078:
  1253  032A  110B               	bcf	11,2	;volatile
  1254  032B                     l1080:
  1255  032B  1683               	bsf	3,5	;RP0=1, select bank1
  1256  032C  1303               	bcf	3,6	;RP1=0, select bank1
  1257  032D  1218               	bcf	24,4	;volatile
  1258  032E                     l1082:
  1259  032E  1518               	bsf	24,2	;volatile
  1260  032F                     l1084:
  1261  032F  1683               	bsf	3,5	;RP0=1, select bank3
  1262  0330  1703               	bsf	3,6	;RP1=1, select bank3
  1263  0331  1587               	bsf	7,3	;volatile
  1264  0332                     l1086:
  1265  0332  30CF               	movlw	207
  1266  0333  1683               	bsf	3,5	;RP0=1, select bank1
  1267  0334  1303               	bcf	3,6	;RP1=0, select bank1
  1268  0335  0099               	movwf	25	;volatile
  1269  0336  019A               	clrf	26	;volatile
  1270  0337                     l1088:
  1271  0337  1283               	bcf	3,5	;RP0=0, select bank0
  1272  0338  1303               	bcf	3,6	;RP1=0, select bank0
  1273  0339  1798               	bsf	24,7	;volatile
  1274  033A                     l1090:
  1275  033A  1318               	bcf	24,6	;volatile
  1276  033B                     l1092:
  1277  033B  1618               	bsf	24,4	;volatile
  1278  033C                     l1094:
  1279  033C  1683               	bsf	3,5	;RP0=1, select bank1
  1280  033D  1303               	bcf	3,6	;RP1=0, select bank1
  1281  033E  1698               	bsf	24,5	;volatile
  1282  033F                     l1096:
  1283  033F  1281               	bcf	1,5	;volatile
  1284  0340                     l1098:
  1285  0340  1181               	bcf	1,3	;volatile
  1286  0341                     l1100:
  1287  0341  1501               	bsf	1,2	;volatile
  1288  0342                     l1102:
  1289  0342  1481               	bsf	1,1	;volatile
  1290  0343                     l1104:
  1291  0343  1401               	bsf	1,0	;volatile
  1292  0344                     l1106:
  1293  0344  300A               	movlw	10
  1294  0345  1283               	bcf	3,5	;RP0=0, select bank0
  1295  0346  1303               	bcf	3,6	;RP1=0, select bank0
  1296  0347  0081               	movwf	1	;volatile
  1297  0348                     l1108:
  1298  0348  1683               	bsf	3,5	;RP0=1, select bank1
  1299  0349  1303               	bcf	3,6	;RP1=0, select bank1
  1300  034A  1107               	bcf	7,2	;volatile
  1301  034B                     l1110:
  1302  034B  1283               	bcf	3,5	;RP0=0, select bank0
  1303  034C  1303               	bcf	3,6	;RP1=0, select bank0
  1304  034D  1507               	bsf	7,2	;volatile
  1305  034E                     l1112:
  1306  034E  01F3               	clrf	spiInit@sDataSample
  1307  034F  01F4               	clrf	spiInit@sClockIdle
  1308  0350  01F5               	clrf	spiInit@sTransmitEdge
  1309  0351  3020               	movlw	32
  1310  0352  120A  118A  2383  120A  118A  	fcall	_spiInit
  1311  0357                     l139:
  1312  0357  0008               	return
  1313  0358                     __end_of_setup:
  1314                           
  1315                           	psect	text5
  1316  0383                     __ptext5:	
  1317 ;; *************** function _spiInit *****************
  1318 ;; Defined at:
  1319 ;;		line 12 in file "SPI.c"
  1320 ;; Parameters:    Size  Location     Type
  1321 ;;  sType           1    wreg     enum E1264
  1322 ;;  sDataSample     1    3[COMMON] enum E1272
  1323 ;;  sClockIdle      1    4[COMMON] enum E1276
  1324 ;;  sTransmitEdg    1    5[COMMON] enum E1280
  1325 ;; Auto vars:     Size  Location     Type
  1326 ;;  sType           1    6[COMMON] enum E1264
  1327 ;; Return value:  Size  Location     Type
  1328 ;;                  1    wreg      void 
  1329 ;; Registers used:
  1330 ;;		wreg, status,2, status,0
  1331 ;; Tracked objects:
  1332 ;;		On entry : 0/0
  1333 ;;		On exit  : 0/0
  1334 ;;		Unchanged: 0/0
  1335 ;; Data sizes:     COMMON   BANK0   BANK1   BANK3   BANK2
  1336 ;;      Params:         3       0       0       0       0
  1337 ;;      Locals:         1       0       0       0       0
  1338 ;;      Temps:          0       0       0       0       0
  1339 ;;      Totals:         4       0       0       0       0
  1340 ;;Total ram usage:        4 bytes
  1341 ;; Hardware stack levels used:    1
  1342 ;; Hardware stack levels required when called:    1
  1343 ;; This function calls:
  1344 ;;		Nothing
  1345 ;; This function is called by:
  1346 ;;		_setup
  1347 ;; This function uses a non-reentrant model
  1348 ;;
  1349                           
  1350                           
  1351                           ;psect for function _spiInit
  1352  0383                     _spiInit:
  1353                           
  1354                           ;incstack = 0
  1355                           ; Regs used in _spiInit: [wreg+status,2+status,0]
  1356                           ;spiInit@sType stored from wreg
  1357  0383  00F6               	movwf	spiInit@sType
  1358  0384                     l1044:
  1359                           
  1360                           ;SPI.c: 12: void spiInit(Spi_Type sType, Spi_Data_Sample sDataSample, Spi_Clock_Idle sCl
      +                          ockIdle, Spi_Transmit_Edge sTransmitEdge);SPI.c: 13: {;SPI.c: 14:     TRISC5 = 0;
  1361  0384  1683               	bsf	3,5	;RP0=1, select bank1
  1362  0385  1303               	bcf	3,6	;RP1=0, select bank1
  1363  0386  1287               	bcf	7,5	;volatile
  1364                           
  1365                           ;SPI.c: 15:     if(sType & 0b00000100)
  1366  0387  1D76               	btfss	spiInit@sType,2
  1367  0388  2B8A               	goto	u381
  1368  0389  2B8B               	goto	u380
  1369  038A                     u381:
  1370  038A  2B8F               	goto	l1050
  1371  038B                     u380:
  1372  038B                     l1046:
  1373                           
  1374                           ;SPI.c: 16:     {;SPI.c: 17:         SSPSTAT = sTransmitEdge;
  1375  038B  0875               	movf	spiInit@sTransmitEdge,w
  1376  038C  0094               	movwf	20	;volatile
  1377  038D                     l1048:
  1378                           
  1379                           ;SPI.c: 18:         TRISC3 = 1;
  1380  038D  1587               	bsf	7,3	;volatile
  1381                           
  1382                           ;SPI.c: 19:     }
  1383  038E  2B93               	goto	l155
  1384  038F                     l1050:
  1385                           
  1386                           ;SPI.c: 21:     {;SPI.c: 22:         SSPSTAT = sDataSample | sTransmitEdge;
  1387  038F  0873               	movf	spiInit@sDataSample,w
  1388  0390  0475               	iorwf	spiInit@sTransmitEdge,w
  1389  0391  0094               	movwf	20	;volatile
  1390  0392                     l1052:
  1391                           
  1392                           ;SPI.c: 23:         TRISC3 = 0;
  1393  0392  1187               	bcf	7,3	;volatile
  1394  0393                     l155:	
  1395                           ;SPI.c: 24:     }
  1396                           
  1397                           
  1398                           ;SPI.c: 26:     SSPCON = sType | sClockIdle;
  1399  0393  0876               	movf	spiInit@sType,w
  1400  0394  0474               	iorwf	spiInit@sClockIdle,w
  1401  0395  1283               	bcf	3,5	;RP0=0, select bank0
  1402  0396  1303               	bcf	3,6	;RP1=0, select bank0
  1403  0397  0094               	movwf	20	;volatile
  1404  0398                     l156:
  1405  0398  0008               	return
  1406  0399                     __end_of_spiInit:
  1407                           
  1408                           	psect	text6
  1409  0358                     __ptext6:	
  1410 ;; *************** function ___wmul *****************
  1411 ;; Defined at:
  1412 ;;		line 15 in file "C:\Program Files\Microchip\xc8\v2.31\pic\sources\c90\common\Umul16.c"
  1413 ;; Parameters:    Size  Location     Type
  1414 ;;  multiplier      2    3[COMMON] unsigned int 
  1415 ;;  multiplicand    2    5[COMMON] unsigned int 
  1416 ;; Auto vars:     Size  Location     Type
  1417 ;;  product         2    0[BANK0 ] unsigned int 
  1418 ;; Return value:  Size  Location     Type
  1419 ;;                  2    3[COMMON] unsigned int 
  1420 ;; Registers used:
  1421 ;;		wreg, status,2, status,0
  1422 ;; Tracked objects:
  1423 ;;		On entry : 0/0
  1424 ;;		On exit  : 0/0
  1425 ;;		Unchanged: 0/0
  1426 ;; Data sizes:     COMMON   BANK0   BANK1   BANK3   BANK2
  1427 ;;      Params:         4       0       0       0       0
  1428 ;;      Locals:         0       2       0       0       0
  1429 ;;      Temps:          0       0       0       0       0
  1430 ;;      Totals:         4       2       0       0       0
  1431 ;;Total ram usage:        6 bytes
  1432 ;; Hardware stack levels used:    1
  1433 ;; Hardware stack levels required when called:    1
  1434 ;; This function calls:
  1435 ;;		Nothing
  1436 ;; This function is called by:
  1437 ;;		_main
  1438 ;; This function uses a non-reentrant model
  1439 ;;
  1440                           
  1441                           
  1442                           ;psect for function ___wmul
  1443  0358                     ___wmul:
  1444  0358                     l1328:	
  1445                           ;incstack = 0
  1446                           ; Regs used in ___wmul: [wreg+status,2+status,0]
  1447                           
  1448  0358  1283               	bcf	3,5	;RP0=0, select bank0
  1449  0359  1303               	bcf	3,6	;RP1=0, select bank0
  1450  035A  01A0               	clrf	___wmul@product
  1451  035B  01A1               	clrf	___wmul@product+1
  1452  035C                     l1330:
  1453  035C  1C73               	btfss	___wmul@multiplier,0
  1454  035D  2B5F               	goto	u751
  1455  035E  2B60               	goto	u750
  1456  035F                     u751:
  1457  035F  2B68               	goto	l254
  1458  0360                     u750:
  1459  0360                     l1332:
  1460  0360  0875               	movf	___wmul@multiplicand,w
  1461  0361  1283               	bcf	3,5	;RP0=0, select bank0
  1462  0362  1303               	bcf	3,6	;RP1=0, select bank0
  1463  0363  07A0               	addwf	___wmul@product,f
  1464  0364  1803               	skipnc
  1465  0365  0AA1               	incf	___wmul@product+1,f
  1466  0366  0876               	movf	___wmul@multiplicand+1,w
  1467  0367  07A1               	addwf	___wmul@product+1,f
  1468  0368                     l254:
  1469  0368  3001               	movlw	1
  1470  0369                     u765:
  1471  0369  1003               	clrc
  1472  036A  0DF5               	rlf	___wmul@multiplicand,f
  1473  036B  0DF6               	rlf	___wmul@multiplicand+1,f
  1474  036C  3EFF               	addlw	-1
  1475  036D  1D03               	skipz
  1476  036E  2B69               	goto	u765
  1477  036F                     l1334:
  1478  036F  3001               	movlw	1
  1479  0370                     u775:
  1480  0370  1003               	clrc
  1481  0371  0CF4               	rrf	___wmul@multiplier+1,f
  1482  0372  0CF3               	rrf	___wmul@multiplier,f
  1483  0373  3EFF               	addlw	-1
  1484  0374  1D03               	skipz
  1485  0375  2B70               	goto	u775
  1486  0376                     l1336:
  1487  0376  0873               	movf	___wmul@multiplier,w
  1488  0377  0474               	iorwf	___wmul@multiplier+1,w
  1489  0378  1D03               	btfss	3,2
  1490  0379  2B7B               	goto	u781
  1491  037A  2B7C               	goto	u780
  1492  037B                     u781:
  1493  037B  2B5C               	goto	l1330
  1494  037C                     u780:
  1495  037C                     l1338:
  1496  037C  1283               	bcf	3,5	;RP0=0, select bank0
  1497  037D  1303               	bcf	3,6	;RP1=0, select bank0
  1498  037E  0821               	movf	___wmul@product+1,w
  1499  037F  00F4               	movwf	?___wmul+1
  1500  0380  0820               	movf	___wmul@product,w
  1501  0381  00F3               	movwf	?___wmul
  1502  0382                     l256:
  1503  0382  0008               	return
  1504  0383                     __end_of___wmul:
  1505                           
  1506                           	psect	text7
  1507  0399                     __ptext7:	
  1508 ;; *************** function ___bmul *****************
  1509 ;; Defined at:
  1510 ;;		line 4 in file "C:\Program Files\Microchip\xc8\v2.31\pic\sources\c90\common\Umul8.c"
  1511 ;; Parameters:    Size  Location     Type
  1512 ;;  multiplier      1    wreg     unsigned char 
  1513 ;;  multiplicand    1    3[COMMON] unsigned char 
  1514 ;; Auto vars:     Size  Location     Type
  1515 ;;  multiplier      1    6[COMMON] unsigned char 
  1516 ;;  product         1    5[COMMON] unsigned char 
  1517 ;; Return value:  Size  Location     Type
  1518 ;;                  1    wreg      unsigned char 
  1519 ;; Registers used:
  1520 ;;		wreg, status,2, status,0
  1521 ;; Tracked objects:
  1522 ;;		On entry : 0/0
  1523 ;;		On exit  : 0/0
  1524 ;;		Unchanged: 0/0
  1525 ;; Data sizes:     COMMON   BANK0   BANK1   BANK3   BANK2
  1526 ;;      Params:         1       0       0       0       0
  1527 ;;      Locals:         2       0       0       0       0
  1528 ;;      Temps:          1       0       0       0       0
  1529 ;;      Totals:         4       0       0       0       0
  1530 ;;Total ram usage:        4 bytes
  1531 ;; Hardware stack levels used:    1
  1532 ;; Hardware stack levels required when called:    1
  1533 ;; This function calls:
  1534 ;;		Nothing
  1535 ;; This function is called by:
  1536 ;;		_main
  1537 ;; This function uses a non-reentrant model
  1538 ;;
  1539                           
  1540                           
  1541                           ;psect for function ___bmul
  1542  0399                     ___bmul:
  1543                           
  1544                           ;incstack = 0
  1545                           ; Regs used in ___bmul: [wreg+status,2+status,0]
  1546                           ;___bmul@multiplier stored from wreg
  1547  0399  00F6               	movwf	___bmul@multiplier
  1548  039A                     l1136:
  1549  039A  01F5               	clrf	___bmul@product
  1550  039B                     l1138:
  1551  039B  1C76               	btfss	___bmul@multiplier,0
  1552  039C  2B9E               	goto	u441
  1553  039D  2B9F               	goto	u440
  1554  039E                     u441:
  1555  039E  2BA3               	goto	l1142
  1556  039F                     u440:
  1557  039F                     l1140:
  1558  039F  0873               	movf	___bmul@multiplicand,w
  1559  03A0  00F4               	movwf	??___bmul
  1560  03A1  0874               	movf	??___bmul,w
  1561  03A2  07F5               	addwf	___bmul@product,f
  1562  03A3                     l1142:
  1563  03A3  1003               	clrc
  1564  03A4  0DF3               	rlf	___bmul@multiplicand,f
  1565  03A5                     l1144:
  1566  03A5  1003               	clrc
  1567  03A6  0CF6               	rrf	___bmul@multiplier,f
  1568  03A7  0876               	movf	___bmul@multiplier,w
  1569  03A8  1D03               	btfss	3,2
  1570  03A9  2BAB               	goto	u451
  1571  03AA  2BAC               	goto	u450
  1572  03AB                     u451:
  1573  03AB  2B9B               	goto	l1138
  1574  03AC                     u450:
  1575  03AC                     l1146:
  1576  03AC  0875               	movf	___bmul@product,w
  1577  03AD                     l280:
  1578  03AD  0008               	return
  1579  03AE                     __end_of___bmul:
  1580                           
  1581                           	psect	text8
  1582  02A8                     __ptext8:	
  1583 ;; *************** function ___awdiv *****************
  1584 ;; Defined at:
  1585 ;;		line 5 in file "C:\Program Files\Microchip\xc8\v2.31\pic\sources\c90\common\awdiv.c"
  1586 ;; Parameters:    Size  Location     Type
  1587 ;;  divisor         2    2[BANK0 ] int 
  1588 ;;  dividend        2    4[BANK0 ] int 
  1589 ;; Auto vars:     Size  Location     Type
  1590 ;;  quotient        2    8[BANK0 ] int 
  1591 ;;  sign            1    7[BANK0 ] unsigned char 
  1592 ;;  counter         1    6[BANK0 ] unsigned char 
  1593 ;; Return value:  Size  Location     Type
  1594 ;;                  2    2[BANK0 ] int 
  1595 ;; Registers used:
  1596 ;;		wreg, status,2, status,0
  1597 ;; Tracked objects:
  1598 ;;		On entry : 0/0
  1599 ;;		On exit  : 0/0
  1600 ;;		Unchanged: 0/0
  1601 ;; Data sizes:     COMMON   BANK0   BANK1   BANK3   BANK2
  1602 ;;      Params:         0       4       0       0       0
  1603 ;;      Locals:         0       4       0       0       0
  1604 ;;      Temps:          1       0       0       0       0
  1605 ;;      Totals:         1       8       0       0       0
  1606 ;;Total ram usage:        9 bytes
  1607 ;; Hardware stack levels used:    1
  1608 ;; Hardware stack levels required when called:    1
  1609 ;; This function calls:
  1610 ;;		Nothing
  1611 ;; This function is called by:
  1612 ;;		_main
  1613 ;; This function uses a non-reentrant model
  1614 ;;
  1615                           
  1616                           
  1617                           ;psect for function ___awdiv
  1618  02A8                     ___awdiv:
  1619  02A8                     l1150:	
  1620                           ;incstack = 0
  1621                           ; Regs used in ___awdiv: [wreg+status,2+status,0]
  1622                           
  1623  02A8  1283               	bcf	3,5	;RP0=0, select bank0
  1624  02A9  1303               	bcf	3,6	;RP1=0, select bank0
  1625  02AA  01A7               	clrf	___awdiv@sign
  1626  02AB                     l1152:
  1627  02AB  1FA3               	btfss	___awdiv@divisor+1,7
  1628  02AC  2AAE               	goto	u461
  1629  02AD  2AAF               	goto	u460
  1630  02AE                     u461:
  1631  02AE  2AB6               	goto	l1158
  1632  02AF                     u460:
  1633  02AF                     l1154:
  1634  02AF  09A2               	comf	___awdiv@divisor,f
  1635  02B0  09A3               	comf	___awdiv@divisor+1,f
  1636  02B1  0AA2               	incf	___awdiv@divisor,f
  1637  02B2  1903               	skipnz
  1638  02B3  0AA3               	incf	___awdiv@divisor+1,f
  1639  02B4                     l1156:
  1640  02B4  01A7               	clrf	___awdiv@sign
  1641  02B5  0AA7               	incf	___awdiv@sign,f
  1642  02B6                     l1158:
  1643  02B6  1FA5               	btfss	___awdiv@dividend+1,7
  1644  02B7  2AB9               	goto	u471
  1645  02B8  2ABA               	goto	u470
  1646  02B9                     u471:
  1647  02B9  2AC3               	goto	l1164
  1648  02BA                     u470:
  1649  02BA                     l1160:
  1650  02BA  09A4               	comf	___awdiv@dividend,f
  1651  02BB  09A5               	comf	___awdiv@dividend+1,f
  1652  02BC  0AA4               	incf	___awdiv@dividend,f
  1653  02BD  1903               	skipnz
  1654  02BE  0AA5               	incf	___awdiv@dividend+1,f
  1655  02BF                     l1162:
  1656  02BF  3001               	movlw	1
  1657  02C0  00F7               	movwf	??___awdiv
  1658  02C1  0877               	movf	??___awdiv,w
  1659  02C2  06A7               	xorwf	___awdiv@sign,f
  1660  02C3                     l1164:
  1661  02C3  01A8               	clrf	___awdiv@quotient
  1662  02C4  01A9               	clrf	___awdiv@quotient+1
  1663  02C5                     l1166:
  1664  02C5  0822               	movf	___awdiv@divisor,w
  1665  02C6  0423               	iorwf	___awdiv@divisor+1,w
  1666  02C7  1903               	btfsc	3,2
  1667  02C8  2ACA               	goto	u481
  1668  02C9  2ACB               	goto	u480
  1669  02CA                     u481:
  1670  02CA  2B02               	goto	l1186
  1671  02CB                     u480:
  1672  02CB                     l1168:
  1673  02CB  01A6               	clrf	___awdiv@counter
  1674  02CC  0AA6               	incf	___awdiv@counter,f
  1675  02CD  2AD9               	goto	l1174
  1676  02CE                     l1170:
  1677  02CE  3001               	movlw	1
  1678  02CF                     u495:
  1679  02CF  1003               	clrc
  1680  02D0  0DA2               	rlf	___awdiv@divisor,f
  1681  02D1  0DA3               	rlf	___awdiv@divisor+1,f
  1682  02D2  3EFF               	addlw	-1
  1683  02D3  1D03               	skipz
  1684  02D4  2ACF               	goto	u495
  1685  02D5                     l1172:
  1686  02D5  3001               	movlw	1
  1687  02D6  00F7               	movwf	??___awdiv
  1688  02D7  0877               	movf	??___awdiv,w
  1689  02D8  07A6               	addwf	___awdiv@counter,f
  1690  02D9                     l1174:
  1691  02D9  1FA3               	btfss	___awdiv@divisor+1,7
  1692  02DA  2ADC               	goto	u501
  1693  02DB  2ADD               	goto	u500
  1694  02DC                     u501:
  1695  02DC  2ACE               	goto	l1170
  1696  02DD                     u500:
  1697  02DD                     l1176:
  1698  02DD  3001               	movlw	1
  1699  02DE                     u515:
  1700  02DE  1003               	clrc
  1701  02DF  0DA8               	rlf	___awdiv@quotient,f
  1702  02E0  0DA9               	rlf	___awdiv@quotient+1,f
  1703  02E1  3EFF               	addlw	-1
  1704  02E2  1D03               	skipz
  1705  02E3  2ADE               	goto	u515
  1706  02E4  0823               	movf	___awdiv@divisor+1,w
  1707  02E5  0225               	subwf	___awdiv@dividend+1,w
  1708  02E6  1D03               	skipz
  1709  02E7  2AEA               	goto	u525
  1710  02E8  0822               	movf	___awdiv@divisor,w
  1711  02E9  0224               	subwf	___awdiv@dividend,w
  1712  02EA                     u525:
  1713  02EA  1C03               	skipc
  1714  02EB  2AED               	goto	u521
  1715  02EC  2AEE               	goto	u520
  1716  02ED                     u521:
  1717  02ED  2AF5               	goto	l1182
  1718  02EE                     u520:
  1719  02EE                     l1178:
  1720  02EE  0822               	movf	___awdiv@divisor,w
  1721  02EF  02A4               	subwf	___awdiv@dividend,f
  1722  02F0  0823               	movf	___awdiv@divisor+1,w
  1723  02F1  1C03               	skipc
  1724  02F2  03A5               	decf	___awdiv@dividend+1,f
  1725  02F3  02A5               	subwf	___awdiv@dividend+1,f
  1726  02F4                     l1180:
  1727  02F4  1428               	bsf	___awdiv@quotient,0
  1728  02F5                     l1182:
  1729  02F5  3001               	movlw	1
  1730  02F6                     u535:
  1731  02F6  1003               	clrc
  1732  02F7  0CA3               	rrf	___awdiv@divisor+1,f
  1733  02F8  0CA2               	rrf	___awdiv@divisor,f
  1734  02F9  3EFF               	addlw	-1
  1735  02FA  1D03               	skipz
  1736  02FB  2AF6               	goto	u535
  1737  02FC                     l1184:
  1738  02FC  3001               	movlw	1
  1739  02FD  02A6               	subwf	___awdiv@counter,f
  1740  02FE  1D03               	btfss	3,2
  1741  02FF  2B01               	goto	u541
  1742  0300  2B02               	goto	u540
  1743  0301                     u541:
  1744  0301  2ADD               	goto	l1176
  1745  0302                     u540:
  1746  0302                     l1186:
  1747  0302  0827               	movf	___awdiv@sign,w
  1748  0303  1903               	btfsc	3,2
  1749  0304  2B06               	goto	u551
  1750  0305  2B07               	goto	u550
  1751  0306                     u551:
  1752  0306  2B0C               	goto	l1190
  1753  0307                     u550:
  1754  0307                     l1188:
  1755  0307  09A8               	comf	___awdiv@quotient,f
  1756  0308  09A9               	comf	___awdiv@quotient+1,f
  1757  0309  0AA8               	incf	___awdiv@quotient,f
  1758  030A  1903               	skipnz
  1759  030B  0AA9               	incf	___awdiv@quotient+1,f
  1760  030C                     l1190:
  1761  030C  0829               	movf	___awdiv@quotient+1,w
  1762  030D  00A3               	movwf	?___awdiv+1
  1763  030E  0828               	movf	___awdiv@quotient,w
  1764  030F  00A2               	movwf	?___awdiv
  1765  0310                     l407:
  1766  0310  0008               	return
  1767  0311                     __end_of___awdiv:
  1768                           
  1769                           	psect	text9
  1770  01E9                     __ptext9:	
  1771 ;; *************** function _isr *****************
  1772 ;; Defined at:
  1773 ;;		line 122 in file "Lab03_main_master.c"
  1774 ;; Parameters:    Size  Location     Type
  1775 ;;		None
  1776 ;; Auto vars:     Size  Location     Type
  1777 ;;		None
  1778 ;; Return value:  Size  Location     Type
  1779 ;;                  1    wreg      void 
  1780 ;; Registers used:
  1781 ;;		wreg, status,2, status,0
  1782 ;; Tracked objects:
  1783 ;;		On entry : 0/0
  1784 ;;		On exit  : 0/0
  1785 ;;		Unchanged: 0/0
  1786 ;; Data sizes:     COMMON   BANK0   BANK1   BANK3   BANK2
  1787 ;;      Params:         0       0       0       0       0
  1788 ;;      Locals:         0       0       0       0       0
  1789 ;;      Temps:          3       0       0       0       0
  1790 ;;      Totals:         3       0       0       0       0
  1791 ;;Total ram usage:        3 bytes
  1792 ;; Hardware stack levels used:    1
  1793 ;; This function calls:
  1794 ;;		Nothing
  1795 ;; This function is called by:
  1796 ;;		Interrupt level 1
  1797 ;; This function uses a non-reentrant model
  1798 ;;
  1799                           
  1800                           
  1801                           ;psect for function _isr
  1802  01E9                     _isr:
  1803  01E9                     i1l1242:
  1804                           
  1805                           ;Lab03_main_master.c: 123:             flag = 9;
  1806  01E9  1D0B               	btfss	11,2	;volatile
  1807  01EA  29EC               	goto	u59_21
  1808  01EB  29ED               	goto	u59_20
  1809  01EC                     u59_21:
  1810  01EC  29F4               	goto	i1l1248
  1811  01ED                     u59_20:
  1812  01ED                     i1l1244:
  1813                           
  1814                           ;Lab03_main_master.c: 124:         } else if (flag == 9){
  1815  01ED  3001               	movlw	1
  1816  01EE  00F0               	movwf	??_isr
  1817  01EF  0870               	movf	??_isr,w
  1818  01F0  1283               	bcf	3,5	;RP0=0, select bank0
  1819  01F1  1303               	bcf	3,6	;RP1=0, select bank0
  1820  01F2  07BA               	addwf	_cont,f
  1821  01F3                     i1l1246:
  1822                           
  1823                           ;Lab03_main_master.c: 125:             TXREG = 0x0D;
  1824  01F3  110B               	bcf	11,2	;volatile
  1825  01F4                     i1l1248:
  1826                           
  1827                           ;Lab03_main_master.c: 128:     TXIF = 0;
  1828  01F4  1283               	bcf	3,5	;RP0=0, select bank0
  1829  01F5  1303               	bcf	3,6	;RP1=0, select bank0
  1830  01F6  1E8C               	btfss	12,5	;volatile
  1831  01F7  29F9               	goto	u60_21
  1832  01F8  29FA               	goto	u60_20
  1833  01F9                     u60_21:
  1834  01F9  2A1B               	goto	i1l1270
  1835  01FA                     u60_20:
  1836  01FA                     i1l1250:
  1837                           
  1838                           ;Lab03_main_master.c: 130: }
  1839  01FA  1785               	bsf	5,7	;volatile
  1840  01FB                     i1l1252:
  1841                           
  1842                           ;Lab03_main_master.c: 131: 
  1843  01FB  300D               	movlw	13
  1844  01FC  061A               	xorwf	26,w	;volatile
  1845  01FD  1D03               	btfss	3,2
  1846  01FE  2A00               	goto	u61_21
  1847  01FF  2A01               	goto	u61_20
  1848  0200                     u61_21:
  1849  0200  2A16               	goto	i1l1268
  1850  0201                     u61_20:
  1851  0201                     i1l1254:
  1852                           
  1853                           ;Lab03_main_master.c: 132: 
  1854  0201  1385               	bcf	5,7	;volatile
  1855  0202                     i1l1256:
  1856                           
  1857                           ;Lab03_main_master.c: 133: 
  1858  0202  302B               	movlw	43
  1859  0203  067A               	xorwf	_var_temp,w
  1860  0204  1D03               	btfss	3,2
  1861  0205  2A07               	goto	u62_21
  1862  0206  2A08               	goto	u62_20
  1863  0207                     u62_21:
  1864  0207  2A0D               	goto	i1l1262
  1865  0208                     u62_20:
  1866  0208                     i1l1258:
  1867                           
  1868                           ;Lab03_main_master.c: 134: void setup(void){
  1869  0208  3001               	movlw	1
  1870  0209  00F0               	movwf	??_isr
  1871  020A  0870               	movf	??_isr,w
  1872  020B  07F9               	addwf	_contador,f
  1873                           
  1874                           ;Lab03_main_master.c: 135: 
  1875  020C  2A1B               	goto	i1l1270
  1876  020D                     i1l1262:
  1877  020D  302D               	movlw	45
  1878  020E  067A               	xorwf	_var_temp,w
  1879  020F  1D03               	btfss	3,2
  1880  0210  2A12               	goto	u63_21
  1881  0211  2A13               	goto	u63_20
  1882  0212                     u63_21:
  1883  0212  2A1B               	goto	i1l115
  1884  0213                     u63_20:
  1885  0213                     i1l1264:
  1886                           
  1887                           ;Lab03_main_master.c: 140: 
  1888  0213  3001               	movlw	1
  1889  0214  02F9               	subwf	_contador,f
  1890                           
  1891                           ;Lab03_main_master.c: 141: 
  1892  0215  2A1B               	goto	i1l1270
  1893  0216                     i1l1268:
  1894                           
  1895                           ;Lab03_main_master.c: 147:     TRISD = 0x00;
  1896  0216  081A               	movf	26,w	;volatile
  1897  0217  00F0               	movwf	??_isr
  1898  0218  0870               	movf	??_isr,w
  1899  0219  00FA               	movwf	_var_temp
  1900  021A  2A1B               	goto	i1l1270
  1901  021B                     i1l115:	
  1902                           ;Lab03_main_master.c: 148:     TRISE = 0x00;
  1903                           
  1904  021B                     i1l1270:
  1905                           
  1906                           ;Lab03_main_master.c: 151:     PORTC = 0x00;
  1907  021B  1E0C               	btfss	12,4	;volatile
  1908  021C  2A1E               	goto	u64_21
  1909  021D  2A1F               	goto	u64_20
  1910  021E                     u64_21:
  1911  021E  2AA1               	goto	i1l136
  1912  021F                     u64_20:
  1913  021F                     i1l1272:
  1914                           
  1915                           ;Lab03_main_master.c: 152:     PORTD = 0x00;
  1916  021F  0878               	movf	_flag,w
  1917  0220  1D03               	btfss	3,2
  1918  0221  2A23               	goto	u65_21
  1919  0222  2A24               	goto	u65_20
  1920  0223                     u65_21:
  1921  0223  2A2A               	goto	i1l1278
  1922  0224                     u65_20:
  1923  0224                     i1l1274:
  1924                           
  1925                           ;Lab03_main_master.c: 153:     PORTE = 0x00;
  1926  0224  0839               	movf	_display_unidad,w
  1927  0225  3E30               	addlw	48
  1928  0226  0099               	movwf	25	;volatile
  1929  0227                     i1l1276:
  1930                           
  1931                           ;Lab03_main_master.c: 154: 
  1932  0227  01F8               	clrf	_flag
  1933  0228  0AF8               	incf	_flag,f
  1934                           
  1935                           ;Lab03_main_master.c: 155: 
  1936  0229  2AA0               	goto	i1l1326
  1937  022A                     i1l1278:
  1938  022A  0378               	decf	_flag,w
  1939  022B  1D03               	btfss	3,2
  1940  022C  2A2E               	goto	u66_21
  1941  022D  2A2F               	goto	u66_20
  1942  022E                     u66_21:
  1943  022E  2A36               	goto	i1l1282
  1944  022F                     u66_20:
  1945  022F                     i1l1280:
  1946                           
  1947                           ;Lab03_main_master.c: 156:     INTCONbits.GIE = 1;
  1948  022F  302E               	movlw	46
  1949  0230  0099               	movwf	25	;volatile
  1950                           
  1951                           ;Lab03_main_master.c: 157:     INTCONbits.T0IE = 1;
  1952  0231  3002               	movlw	2
  1953  0232  00F0               	movwf	??_isr
  1954  0233  0870               	movf	??_isr,w
  1955  0234  00F8               	movwf	_flag
  1956                           
  1957                           ;Lab03_main_master.c: 158:     INTCONbits.T0IF = 0;
  1958  0235  2AA0               	goto	i1l1326
  1959  0236                     i1l1282:
  1960  0236  3002               	movlw	2
  1961  0237  0678               	xorwf	_flag,w
  1962  0238  1D03               	btfss	3,2
  1963  0239  2A3B               	goto	u67_21
  1964  023A  2A3C               	goto	u67_20
  1965  023B                     u67_21:
  1966  023B  2A44               	goto	i1l1288
  1967  023C                     u67_20:
  1968  023C                     i1l1284:
  1969                           
  1970                           ;Lab03_main_master.c: 159: 
  1971  023C  0838               	movf	_display_decimal,w
  1972  023D  3E30               	addlw	48
  1973  023E  0099               	movwf	25	;volatile
  1974  023F                     i1l1286:
  1975                           
  1976                           ;Lab03_main_master.c: 160: 
  1977  023F  3003               	movlw	3
  1978  0240  00F0               	movwf	??_isr
  1979  0241  0870               	movf	??_isr,w
  1980  0242  00F8               	movwf	_flag
  1981                           
  1982                           ;Lab03_main_master.c: 161:     TXSTAbits.SYNC = 0;
  1983  0243  2AA0               	goto	i1l1326
  1984  0244                     i1l1288:
  1985  0244  3003               	movlw	3
  1986  0245  0678               	xorwf	_flag,w
  1987  0246  1D03               	btfss	3,2
  1988  0247  2A49               	goto	u68_21
  1989  0248  2A4A               	goto	u68_20
  1990  0249                     u68_21:
  1991  0249  2A52               	goto	i1l1294
  1992  024A                     u68_20:
  1993  024A                     i1l1290:
  1994                           
  1995                           ;Lab03_main_master.c: 162:     TXSTAbits.BRGH = 1;
  1996  024A  0837               	movf	_display_decimal_2,w
  1997  024B  3E30               	addlw	48
  1998  024C  0099               	movwf	25	;volatile
  1999  024D                     i1l1292:
  2000                           
  2001                           ;Lab03_main_master.c: 163: 
  2002  024D  3004               	movlw	4
  2003  024E  00F0               	movwf	??_isr
  2004  024F  0870               	movf	??_isr,w
  2005  0250  00F8               	movwf	_flag
  2006                           
  2007                           ;Lab03_main_master.c: 164:     BAUDCTLbits.BRG16 = 1;
  2008  0251  2AA0               	goto	i1l1326
  2009  0252                     i1l1294:
  2010  0252  3004               	movlw	4
  2011  0253  0678               	xorwf	_flag,w
  2012  0254  1D03               	btfss	3,2
  2013  0255  2A57               	goto	u69_21
  2014  0256  2A58               	goto	u69_20
  2015  0257                     u69_21:
  2016  0257  2A5F               	goto	i1l1298
  2017  0258                     u69_20:
  2018  0258                     i1l1296:
  2019                           
  2020                           ;Lab03_main_master.c: 165: 
  2021  0258  302D               	movlw	45
  2022  0259  0099               	movwf	25	;volatile
  2023                           
  2024                           ;Lab03_main_master.c: 166:     SPBRG = 207;
  2025  025A  3005               	movlw	5
  2026  025B  00F0               	movwf	??_isr
  2027  025C  0870               	movf	??_isr,w
  2028  025D  00F8               	movwf	_flag
  2029                           
  2030                           ;Lab03_main_master.c: 167:     SPBRGH = 0;
  2031  025E  2AA0               	goto	i1l1326
  2032  025F                     i1l1298:
  2033  025F  3005               	movlw	5
  2034  0260  0678               	xorwf	_flag,w
  2035  0261  1D03               	btfss	3,2
  2036  0262  2A64               	goto	u70_21
  2037  0263  2A65               	goto	u70_20
  2038  0264                     u70_21:
  2039  0264  2A6D               	goto	i1l1304
  2040  0265                     u70_20:
  2041  0265                     i1l1300:
  2042                           
  2043                           ;Lab03_main_master.c: 169:     RCSTAbits.SPEN = 1;
  2044  0265  0836               	movf	_display_unidad_s2,w
  2045  0266  3E30               	addlw	48
  2046  0267  0099               	movwf	25	;volatile
  2047  0268                     i1l1302:
  2048                           
  2049                           ;Lab03_main_master.c: 170:     RCSTAbits.RX9 = 0;
  2050  0268  3006               	movlw	6
  2051  0269  00F0               	movwf	??_isr
  2052  026A  0870               	movf	??_isr,w
  2053  026B  00F8               	movwf	_flag
  2054                           
  2055                           ;Lab03_main_master.c: 171:     RCSTAbits.CREN = 1;
  2056  026C  2AA0               	goto	i1l1326
  2057  026D                     i1l1304:
  2058  026D  3006               	movlw	6
  2059  026E  0678               	xorwf	_flag,w
  2060  026F  1D03               	btfss	3,2
  2061  0270  2A72               	goto	u71_21
  2062  0271  2A73               	goto	u71_20
  2063  0272                     u71_21:
  2064  0272  2A7A               	goto	i1l1308
  2065  0273                     u71_20:
  2066  0273                     i1l1306:
  2067                           
  2068                           ;Lab03_main_master.c: 172: 
  2069  0273  302E               	movlw	46
  2070  0274  0099               	movwf	25	;volatile
  2071                           
  2072                           ;Lab03_main_master.c: 173:     TXSTAbits.TXEN = 1;
  2073  0275  3007               	movlw	7
  2074  0276  00F0               	movwf	??_isr
  2075  0277  0870               	movf	??_isr,w
  2076  0278  00F8               	movwf	_flag
  2077                           
  2078                           ;Lab03_main_master.c: 174: 
  2079  0279  2AA0               	goto	i1l1326
  2080  027A                     i1l1308:
  2081  027A  3007               	movlw	7
  2082  027B  0678               	xorwf	_flag,w
  2083  027C  1D03               	btfss	3,2
  2084  027D  2A7F               	goto	u72_21
  2085  027E  2A80               	goto	u72_20
  2086  027F                     u72_21:
  2087  027F  2A88               	goto	i1l1314
  2088  0280                     u72_20:
  2089  0280                     i1l1310:
  2090                           
  2091                           ;Lab03_main_master.c: 175: 
  2092  0280  0835               	movf	_display_decimal_s2,w
  2093  0281  3E30               	addlw	48
  2094  0282  0099               	movwf	25	;volatile
  2095  0283                     i1l1312:
  2096                           
  2097                           ;Lab03_main_master.c: 176:     OPTION_REGbits.T0CS = 0;
  2098  0283  3008               	movlw	8
  2099  0284  00F0               	movwf	??_isr
  2100  0285  0870               	movf	??_isr,w
  2101  0286  00F8               	movwf	_flag
  2102                           
  2103                           ;Lab03_main_master.c: 177:     OPTION_REGbits.PSA = 0;
  2104  0287  2AA0               	goto	i1l1326
  2105  0288                     i1l1314:
  2106  0288  3008               	movlw	8
  2107  0289  0678               	xorwf	_flag,w
  2108  028A  1D03               	btfss	3,2
  2109  028B  2A8D               	goto	u73_21
  2110  028C  2A8E               	goto	u73_20
  2111  028D                     u73_21:
  2112  028D  2A96               	goto	i1l1320
  2113  028E                     u73_20:
  2114  028E                     i1l1316:
  2115                           
  2116                           ;Lab03_main_master.c: 178:     OPTION_REGbits.PS2 = 1;
  2117  028E  0834               	movf	_display_decimal_2_s2,w
  2118  028F  3E30               	addlw	48
  2119  0290  0099               	movwf	25	;volatile
  2120  0291                     i1l1318:
  2121                           
  2122                           ;Lab03_main_master.c: 179:     OPTION_REGbits.PS1 = 1;
  2123  0291  3009               	movlw	9
  2124  0292  00F0               	movwf	??_isr
  2125  0293  0870               	movf	??_isr,w
  2126  0294  00F8               	movwf	_flag
  2127                           
  2128                           ;Lab03_main_master.c: 180:     OPTION_REGbits.PS0 = 1;
  2129  0295  2AA0               	goto	i1l1326
  2130  0296                     i1l1320:
  2131  0296  3009               	movlw	9
  2132  0297  0678               	xorwf	_flag,w
  2133  0298  1D03               	btfss	3,2
  2134  0299  2A9B               	goto	u74_21
  2135  029A  2A9C               	goto	u74_20
  2136  029B                     u74_21:
  2137  029B  2AA0               	goto	i1l130
  2138  029C                     u74_20:
  2139  029C                     i1l1322:
  2140                           
  2141                           ;Lab03_main_master.c: 181:     TMR0 = 10;
  2142  029C  300D               	movlw	13
  2143  029D  0099               	movwf	25	;volatile
  2144  029E                     i1l1324:
  2145                           
  2146                           ;Lab03_main_master.c: 182: 
  2147  029E  01F8               	clrf	_flag
  2148  029F  2AA0               	goto	i1l1326
  2149  02A0                     i1l130:
  2150  02A0                     i1l1326:
  2151                           
  2152                           ;Lab03_main_master.c: 184:     PORTCbits.RC2 = 1;
  2153  02A0  120C               	bcf	12,4	;volatile
  2154  02A1                     i1l136:
  2155  02A1  0872               	movf	??_isr+2,w
  2156  02A2  008A               	movwf	10
  2157  02A3  0E71               	swapf	??_isr+1,w
  2158  02A4  0083               	movwf	3
  2159  02A5  0EFE               	swapf	btemp,f
  2160  02A6  0E7E               	swapf	btemp,w
  2161  02A7  0009               	retfie
  2162  02A8                     __end_of_isr:
  2163  007E                     btemp	set	126	;btemp
  2164  007E                     wtemp0	set	126
  2165                           
  2166                           	psect	intentry
  2167  0004                     __pintentry:	
  2168                           ;incstack = 0
  2169                           ; Regs used in _isr: [wreg+status,2+status,0]
  2170                           
  2171  0004                     interrupt_function:
  2172  007E                     saved_w	set	btemp
  2173  0004  00FE               	movwf	btemp
  2174  0005  0E03               	swapf	3,w
  2175  0006  00F1               	movwf	??_isr+1
  2176  0007  080A               	movf	10,w
  2177  0008  00F2               	movwf	??_isr+2
  2178  0009  120A  118A  29E9   	ljmp	_isr
  2179                           
  2180                           	psect	config
  2181                           
  2182                           ;Config register CONFIG1 @ 0x2007
  2183                           ;	Oscillator Selection bits
  2184                           ;	FOSC = INTRC_NOCLKOUT, INTOSCIO oscillator: I/O function on RA6/OSC2/CLKOUT pin, I/O f
      +                          unction on RA7/OSC1/CLKIN
  2185                           ;	Watchdog Timer Enable bit
  2186                           ;	WDTE = OFF, WDT disabled and can be enabled by SWDTEN bit of the WDTCON register
  2187                           ;	Power-up Timer Enable bit
  2188                           ;	PWRTE = ON, PWRT enabled
  2189                           ;	RE3/MCLR pin function select bit
  2190                           ;	MCLRE = OFF, RE3/MCLR pin function is digital input, MCLR internally tied to VDD
  2191                           ;	Code Protection bit
  2192                           ;	CP = OFF, Program memory code protection is disabled
  2193                           ;	Data Code Protection bit
  2194                           ;	CPD = OFF, Data memory code protection is disabled
  2195                           ;	Brown Out Reset Selection bits
  2196                           ;	BOREN = OFF, BOR disabled
  2197                           ;	Internal External Switchover bit
  2198                           ;	IESO = OFF, Internal/External Switchover mode is disabled
  2199                           ;	Fail-Safe Clock Monitor Enabled bit
  2200                           ;	FCMEN = OFF, Fail-Safe Clock Monitor is disabled
  2201                           ;	Low Voltage Programming Enable bit
  2202                           ;	LVP = OFF, RB3 pin has digital I/O, HV on MCLR must be used for programming
  2203                           ;	In-Circuit Debugger Mode bit
  2204                           ;	DEBUG = 0x1, unprogrammed default
  2205  2007                     	org	8199
  2206  2007  20C4               	dw	8388
  2207                           
  2208                           ;Config register CONFIG2 @ 0x2008
  2209                           ;	Brown-out Reset Selection bit
  2210                           ;	BOR4V = BOR40V, Brown-out Reset set to 4.0V
  2211                           ;	Flash Program Memory Self Write Enable bits
  2212                           ;	WRT = OFF, Write protection off
  2213  2008                     	org	8200
  2214  2008  3FFF               	dw	16383

Data Sizes:
    Strings     0
    Constant    0
    Data        1
    BSS         12
    Persistent  0
    Stack       0

Auto Spaces:
    Space          Size  Autos    Used
    COMMON           14      8      11
    BANK0            80     20      30
    BANK1            80      0       0
    BANK3            96      0       0
    BANK2            96      0       0

Pointer List with Targets:

    None.

Critical Paths under _main in COMMON

    _main->___awdiv
    _setup->_spiInit
    ___awdiv->___wmul

Critical Paths under _isr in COMMON

    None.

Critical Paths under _main in BANK0

    _main->___awdiv
    ___awdiv->___wmul

Critical Paths under _isr in BANK0

    None.

Critical Paths under _main in BANK1

    None.

Critical Paths under _isr in BANK1

    None.

Critical Paths under _main in BANK3

    None.

Critical Paths under _isr in BANK3

    None.

Critical Paths under _main in BANK2

    None.

Critical Paths under _isr in BANK2

    None.

Call Graph Tables:

 ---------------------------------------------------------------------------------
 (Depth) Function   	        Calls       Base Space   Used Autos Params    Refs
 ---------------------------------------------------------------------------------
 (0) _main                                                10    10      0    3578
                                             10 BANK0     10    10      0
                            ___awdiv
                             ___bmul
                             ___wmul
                              _setup
                            _spiRead
                           _spiWrite
 ---------------------------------------------------------------------------------
 (1) _spiWrite                                             1     1      0      22
                                              3 COMMON     1     1      0
 ---------------------------------------------------------------------------------
 (1) _spiRead                                              0     0      0       0
                     _spiReceiveWait
 ---------------------------------------------------------------------------------
 (2) _spiReceiveWait                                       0     0      0       0
 ---------------------------------------------------------------------------------
 (1) _setup                                                0     0      0     360
                            _spiInit
 ---------------------------------------------------------------------------------
 (2) _spiInit                                              4     1      3     360
                                              3 COMMON     4     1      3
 ---------------------------------------------------------------------------------
 (1) ___wmul                                               6     2      4    1216
                                              3 COMMON     4     0      4
                                              0 BANK0      2     2      0
 ---------------------------------------------------------------------------------
 (1) ___bmul                                               4     3      1     396
                                              3 COMMON     4     3      1
 ---------------------------------------------------------------------------------
 (1) ___awdiv                                              9     5      4    1516
                                              7 COMMON     1     1      0
                                              2 BANK0      8     4      4
                             ___wmul (ARG)
 ---------------------------------------------------------------------------------
 Estimated maximum stack depth 2
 ---------------------------------------------------------------------------------
 (Depth) Function   	        Calls       Base Space   Used Autos Params    Refs
 ---------------------------------------------------------------------------------
 (3) _isr                                                  3     3      0       0
                                              0 COMMON     3     3      0
 ---------------------------------------------------------------------------------
 Estimated maximum stack depth 3
 ---------------------------------------------------------------------------------

 Call Graph Graphs:

 _main (ROOT)
   ___awdiv
     ___wmul (ARG)
   ___bmul
   ___wmul
   _setup
     _spiInit
   _spiRead
     _spiReceiveWait
   _spiWrite

 _isr (ROOT)

 Address spaces:
Name               Size   Autos  Total    Cost      Usage
BANK3               60      0       0       9        0.0%
BITBANK3            60      0       0       8        0.0%
SFR3                 0      0       0       4        0.0%
BITSFR3              0      0       0       4        0.0%
BANK2               60      0       0      11        0.0%
BITBANK2            60      0       0      10        0.0%
SFR2                 0      0       0       5        0.0%
BITSFR2              0      0       0       5        0.0%
BANK1               50      0       0       7        0.0%
BITBANK1            50      0       0       6        0.0%
SFR1                 0      0       0       2        0.0%
BITSFR1              0      0       0       2        0.0%
BANK0               50     14      1E       5       37.5%
BITBANK0            50      0       0       4        0.0%
SFR0                 0      0       0       1        0.0%
BITSFR0              0      0       0       1        0.0%
COMMON               E      8       B       1       78.6%
BITCOMMON            E      0       0       0        0.0%
CODE                 0      0       0       0        0.0%
DATA                 0      0      29      12        0.0%
ABS                  0      0      29       3        0.0%
NULL                 0      0       0       0        0.0%
STACK                0      0       0       2        0.0%
EEDATA             100      0       0       0        0.0%


Microchip Technology PIC Macro Assembler V2.31 build 20201012212115 
Symbol Table                                                                                   Tue Aug 03 01:14:04 2021

         ___bmul@product 0075              _SSPSTATbits 0094             ___awdiv@sign 0027  
    ___wmul@multiplicand 0075                      l162 03BD                      l155 0393  
                    l139 0357                      l156 0398                      l165 03C3  
                    l254 0368                      l407 0310                      l159 03B7  
                    l280 03AD                      l256 0382                      l168 03B6  
                    _RA7 002F                      u500 02DD                      u501 02DC  
                    u520 02EE                      u440 039F                      u521 02ED  
                    u441 039E                      u450 03AC                      u515 02DE  
                    u451 03AB                      u540 0302                      u460 02AF  
                    u380 038B                      u541 0301                      u525 02EA  
                    u461 02AE                      u381 038A                      u550 0307  
                    u470 02BA                      u390 03BD                      u551 0306  
                    u535 02F6                      u471 02B9                      u391 03BC  
                    u480 02CB                      u800 005B                      u481 02CA  
                    u801 005A                      u810 008A                      u811 0089  
                    u750 0360                      u495 02CF                      u751 035F  
                    u827 0033                      u780 037C                      u781 037B  
                    u765 0369                      u837 006D                      u790 0046  
                    u775 0370                      u847 007C                      u791 0045  
                    _POT 003D                      _isr 01E9                     l1100 0341  
                   l1110 034B                     l1102 0342                     l1112 034E  
                   l1104 0343                     l1050 038F                     l1106 0344  
                   l1114 03BF                     l1140 039F                     l1052 0392  
                   l1044 0384                     l1108 0348                     l1060 031E  
                   l1116 03AE                     l1150 02A8                     l1142 03A3  
                   l1046 038B                     l1070 0326                     l1062 0320  
                   l1054 03B7                     l1118 03B3                     l1160 02BA  
                   l1152 02AB                     l1144 03A5                     l1136 039A  
                   l1048 038D                     l1080 032B                     l1072 0327  
                   l1064 0321                     l1056 0311                     l1170 02CE  
                   l1162 02BF                     l1154 02AF                     l1146 03AC  
                   l1138 039B                     l1330 035C                     l1090 033A  
                   l1082 032E                     l1074 0328                     l1066 0322  
                   l1058 0317                     l1180 02F4                     l1172 02D5  
                   l1164 02C3                     l1156 02B4                     l1332 0360  
                   l1092 033B                     l1084 032F                     l1076 0329  
                   l1068 0325                     l1190 030C                     l1182 02F5  
                   l1174 02D9                     l1166 02C5                     l1158 02B6  
                   l1334 036F                     l1094 033C                     l1086 0332  
                   l1078 032A                     l1350 003F                     l1342 0025  
                   l1184 02FC                     l1176 02DD                     l1168 02CB  
                   l1336 0376                     l1328 0358                     l1096 033F  
                   l1088 0337                     l1360 0065                     l1352 0046  
                   l1344 002A                     l1178 02EE                     l1186 0302  
                   l1338 037C                     l1098 0340                     l1370 008A  
                   l1362 0067                     l1354 0050                     l1346 002D  
                   l1188 0307                     l1380 00F7                     l1372 008B  
                   l1364 0071                     l1356 0055                     l1348 0037  
                   l1382 013A                     l1374 008E                     l1366 0074  
                   l1358 005B                     l1384 0150                     l1376 00A5  
                   l1368 0082                     l1386 018F                     l1378 00E4  
                   l1388 01A2                     ?_isr 0070                     _POT1 003C  
                   _POT2 003B                     _TMR0 0001                     _TXIE 0464  
                   _TXIF 0064                     _flag 0078                     _cont 003A  
                   _main 0025                     btemp 007E                     start 000C  
      ___bmul@multiplier 0076                    ??_isr 0070                    ?_main 0070  
        __end_of___awdiv 0311                    _ANSEL 0188          ___awdiv@divisor 0022  
                  i1l130 02A0                    i1l115 021B                    i1l136 02A1  
        ___awdiv@counter 0026                    _RCREG 001A                    _SPBRG 0099  
                  _PORTA 0005                    _PORTC 0007                    _PORTD 0008  
                  _PORTE 0009                    u60_20 01FA                    u60_21 01F9  
                  u61_20 0201                    u61_21 0200                    u70_20 0265  
                  u62_20 0208                    u70_21 0264                    u62_21 0207  
                  u71_20 0273                    u63_20 0213                    u71_21 0272  
                  u63_21 0212                    u72_20 0280                    u64_20 021F  
                  u72_21 027F                    u64_21 021E                    u73_20 028E  
                  u65_20 0224                    u73_21 028D                    u65_21 0223  
                  _TRISA 0085                    _TRISC 0087                    _TRISD 0088  
                  _TRISE 0089                    u74_20 029C                    u66_20 022F  
                  u74_21 029B                    u66_21 022E                    u67_20 023C  
                  u59_20 01ED                    u67_21 023B                    u59_21 01EC  
                  u68_20 024A                    u68_21 0249                    u69_20 0258  
                  u69_21 0257                    _TXREG 0019                    _setup 0311  
                  pclath 000A          __end_of_spiInit 0399          __end_of_spiRead 03B7  
                  status 0003                    wtemp0 007E          __initialization 000F  
           __end_of_main 01E9                   ??_main 002A         ___awdiv@dividend 0024  
                 ?_setup 0070                   _ANSELH 0189                   i1l1300 0265  
                 i1l1310 0280                   i1l1302 0268                   i1l1320 0296  
                 i1l1312 0283                   i1l1304 026D                   i1l1322 029C  
                 i1l1314 0288                   i1l1306 0273                   i1l1250 01FA  
                 i1l1242 01E9                   i1l1324 029E                   i1l1316 028E  
                 i1l1308 027A                   i1l1252 01FB                   i1l1244 01ED  
                 i1l1318 0291                   i1l1326 02A0                   i1l1262 020D  
                 i1l1254 0201                   i1l1270 021B                   i1l1246 01F3  
                 i1l1280 022F                   i1l1272 021F                   i1l1264 0213  
                 i1l1256 0202                   i1l1248 01F4                   i1l1290 024A  
                 i1l1282 0236                   i1l1274 0224                   i1l1258 0208  
                 i1l1292 024D                   i1l1284 023C                   i1l1276 0227  
                 i1l1268 0216                   i1l1294 0252                   i1l1286 023F  
                 i1l1278 022A                   i1l1296 0258                   i1l1288 0244  
                 i1l1298 025F                   _SPBRGH 009A                   _TRISC2 043A  
                 _TRISC3 043B                   _TRISC5 043D                   _SSPCON 0014  
                 _SSPBUF 0013                   ___bmul 0399                   ___wmul 0358  
              ??___awdiv 0077         ___awdiv@quotient 0028                   saved_w 007E  
       __end_of_spiWrite 03C4                ??_spiInit 0076                ??_spiRead 0073  
__end_of__initialization 0021      ___bmul@multiplicand 0073           __pcstackCOMMON 0070  
           __pidataBANK0 03C4            __end_of_setup 0358           _OPTION_REGbits 0081  
                ??_setup 0077               __pbssBANK0 0034               __pmaintext 0025  
   _display_decimal_2_s2 0034       _display_decimal_s2 0035                  ?___bmul 0073  
                ?___wmul 0073               __pintentry 0004  __size_of_spiReceiveWait 0007  
                _SSPSTAT 0094                ?_spiWrite 0070          __size_of___bmul 0015  
                ___awdiv 02A8          __size_of___wmul 002B                  __ptext1 03BE  
                __ptext2 03AE                  __ptext3 03B7                  __ptext4 0311  
                __ptext5 0383                  __ptext6 0358                  __ptext7 0399  
                __ptext8 02A8                  __ptext9 01E9             __size_of_isr 00BF  
                _spiInit 0383                  _spiRead 03AE     end_of_initialization 0021  
              _RCSTAbits 0018               ??_spiWrite 0073                _PORTCbits 0007  
            spiWrite@dat 0073                _TXSTAbits 0098           _spiReceiveWait 03B7  
         __end_of___bmul 03AE           __end_of___wmul 0383              _BAUDCTLbits 0187  
    start_initialization 000F              __end_of_isr 02A8   __end_of_spiReceiveWait 03BE  
               ??___bmul 0074                 ??___wmul 0077              __pdataBANK0 003D  
            __pbssCOMMON 0078                ___latbits 0002            __pcstackBANK0 0020  
              _main$1110 0032        _display_decimal_2 0037          ?_spiReceiveWait 0070  
               ?___awdiv 0022        __size_of_spiWrite 0006                 ?_spiInit 0073  
               ?_spiRead 0070           __size_of_setup 0047     spiInit@sTransmitEdge 0075  
      interrupt_function 0004           ___wmul@product 0020       spiInit@sDataSample 0073  
               _PIR1bits 000C        ___wmul@multiplier 0073        _display_unidad_s2 0036  
       __size_of___awdiv 0069         __size_of_spiInit 0016         __size_of_spiRead 0009  
               _contador 0079            __size_of_main 01C4                 _var_temp 007A  
               _spiWrite 03BE             spiInit@sType 0076        spiInit@sClockIdle 0074  
             _INTCONbits 000B                 intlevel1 0000          _display_decimal 0038  
       ??_spiReceiveWait 0073               _OSCCONbits 008F           _display_unidad 0039  
